 ConEmu

 Timestamp is 58bcbc9e (Mon Mar 06 04:34:22 2017)

 Preferred load address is 10000000

 Start         Length     Name                   Class
 0001:00000000 0003f8beH .text                   CODE
 0001:0003f8c0 0000002cH .text$yc                CODE
 0001:0003f8f0 0000000fH .text$yd                CODE
 0002:00000000 000003f0H .idata$5                DATA
 0002:000003f0 00000004H .CRT$XCA                DATA
 0002:000003f4 00000008H .CRT$XCU                DATA
 0002:000003fc 00000004H .CRT$XCZ                DATA
 0002:00000400 00000004H .CRT$XIA                DATA
 0002:00000404 0000000cH .CRT$XIC                DATA
 0002:00000410 00000004H .CRT$XIZ                DATA
 0002:00000414 00000004H .CRT$XPA                DATA
 0002:00000418 00000004H .CRT$XPZ                DATA
 0002:0000041c 00000004H .CRT$XTA                DATA
 0002:00000420 00000004H .CRT$XTZ                DATA
 0002:00000430 00005fe0H .rdata                  DATA
 0002:00006410 0000006fH .rdata$debug            DATA
 0002:00006480 00000010H .rdata$sxdata           DATA
 0002:00006490 00000004H .rtc$IAA                DATA
 0002:00006494 00000004H .rtc$IZZ                DATA
 0002:00006498 00000004H .rtc$TAA                DATA
 0002:0000649c 00000004H .rtc$TZZ                DATA
 0002:000064a0 00000484H .xdata$x                DATA
 0002:00006924 00000078H .idata$2                DATA
 0002:0000699c 00000014H .idata$3                DATA
 0002:000069b0 000003f0H .idata$4                DATA
 0002:00006da0 00001226H .idata$6                DATA
 0002:00007fd0 000002ddH .edata                  DATA
 0003:00000000 00000e50H .data                   DATA
 0003:00000e60 0000a48cH .bss                    DATA
 0004:00000000 00000058H .rsrc$01                DATA
 0004:00000060 00000308H .rsrc$02                DATA

  Address         Publics by Value              Rva+Base       Lib:Object

 0000:00000000       __except_list              00000000     <absolute>
 0000:00000004       ___safe_se_handler_count   00000004     <absolute>
 0000:00000000       ___ImageBase               10000000     <linker-defined>
 0001:00000000       ??0CEStr@@QAE@XZ           10001000 f   CEStr.obj
 0001:00000030       ??0CEStr@@QAE@PB_W00000000@Z 10001030 f   CEStr.obj
 0001:000000a0       ??0CEStr@@QAE@PA_W@Z       100010a0 f   CEStr.obj
 0001:000000e0       ?Empty@CEStr@@QAEXXZ       100010e0 f   CEStr.obj
 0001:00000140       ??BCEStr@@QBEPB_WXZ        10001140 f   CEStr.obj
 0001:00000150       ??BCEStr@@QBE_NXZ          10001150 f   CEStr.obj
 0001:00000170       ?c_str@CEStr@@QBEPB_WPB_W@Z 10001170 f   CEStr.obj
 0001:000001a0       ?Right@CEStr@@QBEPB_WH@Z   100011a0 f   CEStr.obj
 0001:00000200       ?Mid@CEStr@@QBEPB_WH@Z     10001200 f   CEStr.obj
 0001:00000250       ??4CEStr@@QAEAAU0@PA_W@Z   10001250 f   CEStr.obj
 0001:00000270       ??4CEStr@@QAEAAU0@PB_W@Z   10001270 f   CEStr.obj
 0001:00000290       ??1CEStr@@QAE@XZ           10001290 f   CEStr.obj
 0001:00000300       ?GetLen@CEStr@@QBEHXZ      10001300 f   CEStr.obj
 0001:00000350       ?GetMaxCount@CEStr@@QAEHXZ 10001350 f   CEStr.obj
 0001:00000390       ?GetBuffer@CEStr@@QAEPA_WH@Z 10001390 f   CEStr.obj
 0001:00000490       ?Detach@CEStr@@QAEPA_WXZ   10001490 f   CEStr.obj
 0001:000004d0       ?Clear@CEStr@@QAEXXZ       100014d0 f   CEStr.obj
 0001:00000510       ?Attach@CEStr@@QAEPB_WPA_W@Z 10001510 f   CEStr.obj
 0001:00000530       ?AttachInt@CEStr@@AAEPB_WAAPA_W@Z 10001530 f   CEStr.obj
 0001:000005c0       ?Compare@CEStr@@QBEHPB_W_N@Z 100015c0 f   CEStr.obj
 0001:00000640       ?IsPossibleSwitch@CEStr@@QBE_NXZ 10001640 f   CEStr.obj
 0001:000006d0       ?wcspbrk@@YAPA_WPA_WPB_W@Z 100016d0 f i CEStr.obj
 0001:000006f0       ?CompareSwitch@CEStr@@ABE_NPB_W@Z 100016f0 f   CEStr.obj
 0001:000007c0       ?IsSwitch@CEStr@@QBE_NPB_W@Z 100017c0 f   CEStr.obj
 0001:00000800       ?OneOfSwitches@CEStr@@QBE_NPB_W000000000@Z 10001800 f   CEStr.obj
 0001:000008a0       ?IsEmpty@CEStr@@QBE_NXZ    100018a0 f   CEStr.obj
 0001:000008e0       ?Set@CEStr@@QAEPB_WPB_WH@Z 100018e0 f   CEStr.obj
 0001:000009f0       _wmemmove                  100019f0 f i CEStr.obj
 0001:00000a10       ?StringCchCopyNW@@YGJPA_WIPB_WI@Z 10001a10 f i CEStr.obj
 0001:00000b50       ?SavePathVar@CEStr@@QAEXPB_W@Z 10001b50 f   CEStr.obj
 0001:00000b90       ?SaveEnvVar@CEStr@@QAEXPB_W0@Z 10001b90 f   CEStr.obj
 0001:00000c10       ?SetAt@CEStr@@QAEXH_W@Z    10001c10 f   CEStr.obj
 0001:00000c40       ?GetPosFrom@CEStr@@QAEXABU1@@Z 10001c40 f   CEStr.obj
 0001:00000c80       ??$klSwap@PA_W@@YIXAAPA_W0@Z 10001c80 f i CEStr.obj
 0001:00000cb0       ??$klMin@H@@YIABHABH0@Z    10001cb0 f i CEStr.obj
 0001:00000cf0       ?DemangleArg@@YI_NAAUCEStr@@_N1@Z 10001cf0 f   CmdLine.obj
 0001:00000fc0       ?IsNeedDequote@@YI_NPB_W_NPAPB_W@Z 10001fc0 f   CmdLine.obj
 0001:00001190       ?QueryNextArg@@YIPB_WPB_WAAUCEStr@@PAPB_W@Z 10002190 f   CmdLine.obj
 0001:000011c0       ?NextArg@@YIHPAPB_WAAUCEStr@@0@Z 100021c0 f   CmdLine.obj
 0001:00001690       ?QueryNextLine@@YIPB_WPB_WAAUCEStr@@K@Z 10002690 f   CmdLine.obj
 0001:000016c0       ?NextLine@@YIHPAPB_WAAUCEStr@@K@Z 100026c0 f   CmdLine.obj
 0001:00001830       ?AddEndSlash@@YIHPA_WH@Z   10002830 f   CmdLine.obj
 0001:000018b0       ?SkipNonPrintable@@YIPB_WPB_W@Z 100028b0 f   CmdLine.obj
 0001:00001910       ?CompareFileMask@@YI_NPB_W0@Z 10002910 f   CmdLine.obj
 0001:00001ae0       ?wcschr@@YAPA_WPA_W_W@Z    10002ae0 f i CmdLine.obj
 0001:00001b00       ?GetDrive@@YIPB_WPB_WPA_WH@Z 10002b00 f   CmdLine.obj
 0001:00001d00       ?GetDirectory@@YIPB_WAAUCEStr@@@Z 10002d00 f   CmdLine.obj
 0001:00001da0       ?IsNeedCmd@@YI_NHPB_WAAUCEStr@@PAPB_WPAH333@Z 10002da0 f   CmdLine.obj
 0001:000025e0       ?Disable@MWow64Disable@@QAEXXZ 100035e0 f i CmdLine.obj
 0001:00002610       ??0MWow64Disable@@QAE@XZ   10003610 f i CmdLine.obj
 0001:00002690       ??1MWow64Disable@@QAE@XZ   10003690 f i CmdLine.obj
 0001:000026b0       ?Restore@MWow64Disable@@QAEXXZ 100036b0 f i CmdLine.obj
 0001:000026f0       ?IsExecutable@@YI_NPB_WPAPA_W@Z 100036f0 f   CmdLine.obj
 0001:000027e0       ?CompareProcessNames@@YI_NPB_W0@Z 100037e0 f   CmdLine.obj
 0001:00002970       ?CheckProcessName@@YI_NPB_WPAPB_W@Z 10003970 f   CmdLine.obj
 0001:00002a70       ?IsConsoleService@@YI_NPB_W@Z 10003a70 f   CmdLine.obj
 0001:00002aa0       ?IsConEmuGui@@YI_NPB_W@Z   10003aa0 f   CmdLine.obj
 0001:00002ad0       ?IsConsoleServer@@YI_NPB_W@Z 10003ad0 f   CmdLine.obj
 0001:00002b00       ?IsTerminalServer@@YI_NPB_W@Z 10003b00 f   CmdLine.obj
 0001:00002b50       ?IsGitBashHelper@@YI_NPB_W@Z 10003b50 f   CmdLine.obj
 0001:00002b80       ?IsSshAgentHelper@@YI_NPB_W@Z 10003b80 f   CmdLine.obj
 0001:00002bb0       ?IsConsoleHelper@@YI_NPB_W@Z 10003bb0 f   CmdLine.obj
 0001:00002be0       ?IsFarExe@@YI_NPB_W@Z      10003be0 f   CmdLine.obj
 0001:00002c10       ?IsCmdProcessor@@YI_NPB_W@Z 10003c10 f   CmdLine.obj
 0001:00002c40       ?IsQuotationNeeded@@YI_NPB_W@Z 10003c40 f   CmdLine.obj
 0001:00002c80       ?MergeCmdLine@@YIPA_WPB_W0@Z 10003c80 f   CmdLine.obj
 0001:00002d20       ?JoinPath@@YIPA_WPB_W00@Z  10003d20 f   CmdLine.obj
 0001:00002e90       ?IsFilePath@@YI_NPB_W_N@Z  10003e90 f   CmdLine.obj
 0001:00003050       ?PointToName@@YIPB_WPB_W@Z 10004050 f   CmdLine.obj
 0001:000030e0       ?PointToName@@YIPBDPBD@Z   100040e0 f   CmdLine.obj
 0001:00003160       ?PointToExt@@YIPB_WPB_W@Z  10004160 f   CmdLine.obj
 0001:000031a0       ?Unquote@@YIPB_WPA_W_N@Z   100041a0 f   CmdLine.obj
 0001:00003230       ?wcsrchr@@YAPA_WPA_W_W@Z   10004230 f i CmdLine.obj
 0001:00003250       ?IsNewConsoleArg@@YI_NPB_W0@Z 10004250 f   CmdLine.obj
 0001:00003330       ?Set@STRPTR2@@QAEXPA_WH@Z  10004330 f   Common.obj
 0001:00003370       ?Mangle@STRPTR2@@QAEPAEPAE@Z 10004370 f   Common.obj
 0001:00003410       ?Demangle@STRPTR2@@QAEPA_WXZ 10004410 f   Common.obj
 0001:00003450       ??BSTRPTR2@@QAEPB_WXZ      10004450 f   Common.obj
 0001:00003470       ?PackInputRecord@@YIHPBU_INPUT_RECORD@@PAUMsgStr@MSG64@@@Z 10004470 f   Common.obj
 0001:00003680       ?UnpackInputRecord@@YIHPBUMsgStr@MSG64@@PAU_INPUT_RECORD@@@Z 10004680 f   Common.obj
 0001:000038e0       ?TranslateKeyPress@@YIXGK_WHPAU_INPUT_RECORD@@1@Z 100048e0 f   Common.obj
 0001:00003ae0       ?GetCommand@CESERVER_REQ_NEWCMD@@QAEPA_WXZ 10004ae0 f   Common.obj
 0001:00003b20       ?GetEnvStrings@CESERVER_REQ_NEWCMD@@QAEPA_WXZ 10004b20 f   Common.obj
 0001:00003b70       ?SetCommand@CESERVER_REQ_NEWCMD@@QAEXPB_W@Z 10004b70 f   Common.obj
 0001:00003bf0       ?SetEnvStrings@CESERVER_REQ_NEWCMD@@QAEXPB_WK@Z 10004bf0 f   Common.obj
 0001:00003d10       ?IsEnvBlockVariableValid@@YI_NPB_WAAPB_W@Z 10004d10 f   Common.obj
 0001:00003d70       ?IsEnvBlockVariableValid@@YI_NPB_W@Z 10004d70 f   Common.obj
 0001:00003db0       ?CommonShutdown@@YIXXZ     10004db0 f   Common.obj
 0001:00003dd0       ?ModuleName@@YIPB_WPB_W@Z  10004dd0 f   ConEmuCheck.obj
 0001:00003eb0       ?ExecuteOpenPipe@@YIPAXPB_WAAY0CAI@_W0KKHPAXH@Z 10004eb0 f   ConEmuCheck.obj
 0001:000040d0       ?ExecutePrepareCmd@@YIXPAUCESERVER_REQ@@KI@Z 100050d0 f   ConEmuCheck.obj
 0001:00004120       ?ExecutePrepareCmd@@YIXPAUCESERVER_REQ_HDR@@KI@Z 10005120 f   ConEmuCheck.obj
 0001:000041c0       ?ExecuteNewCmd@@YIPAUCESERVER_REQ@@KI@Z 100051c0 f   ConEmuCheck.obj
 0001:00004220       ?ExecuteNewCmd@@YI_NAAPAUCESERVER_REQ@@AAKKI@Z 10005220 f   ConEmuCheck.obj
 0001:000042a0       ?LoadSrvMapping@@YIHPAUHWND__@@AAUCESERVER_CONSOLE_MAPPING_HDR@@@Z 100052a0 f   ConEmuCheck.obj
 0001:000043d0       ?LoadGuiMapping@@YIHKAAUConEmuGuiMapping@@@Z 100053d0 f   ConEmuCheck.obj
 0001:000044f0       ?ExecuteNewCmdOnCreate@@YIPAUCESERVER_REQ@@PAUCESERVER_CONSOLE_MAPPING_HDR@@PAUHWND__@@W4CmdOnCreateType@@PB_W333PAK444HHPAX55@Z 100054f0 f   ConEmuCheck.obj
 0001:00004930       ?StringCchCopyW@@YGJPA_WIPB_W@Z 10005930 f i ConEmuCheck.obj
 0001:00004a60       ?ExecuteGuiCmd@@YIPAUCESERVER_REQ@@PAUHWND__@@PAU1@0H@Z 10005a60 f   ConEmuCheck.obj
 0001:00004af0       ?ExecuteSrvCmd@@YIPAUCESERVER_REQ@@KPAU1@PAUHWND__@@HKH@Z 10005af0 f   ConEmuCheck.obj
 0001:00004b90       ?ExecuteHkCmd@@YIPAUCESERVER_REQ@@KPAU1@PAUHWND__@@HH@Z 10005b90 f   ConEmuCheck.obj
 0001:00004c30       ?ExecuteCmd@@YIPAUCESERVER_REQ@@PB_WPAU1@KPAUHWND__@@HKH@Z 10005c30 f   ConEmuCheck.obj
 0001:00004f60       ?ExecuteFreeResult@@YIXAAPAUCESERVER_REQ@@@Z 10005f60 f   ConEmuCheck.obj
 0001:00004fa0       ?AllocateSendCurrentDirectory@@YI_NAAPAUCESERVER_REQ@@AAKPB_W2@Z 10005fa0 f   ConEmuCheck.obj
 0001:000050b0       ?SendCurrentDirectory@@YIXPAUHWND__@@PB_W1@Z 100060b0 f   ConEmuCheck.obj
 0001:00005110       ?isConsoleClass@@YI_NPB_W@Z 10006110 f   ConEmuCheck.obj
 0001:00005160       ?isConsoleWindow@@YI_NPAUHWND__@@@Z 10006160 f   ConEmuCheck.obj
 0001:00005260       ?myGetConsoleWindow@@YIPAUHWND__@@XZ 10006260 f   ConEmuCheck.obj
 0001:00005320       ?GetConEmuHWND@@YIPAUHWND__@@H@Z 10006320 f   ConEmuCheck.obj
 0001:000054d0       ??BHWND2@@QBEPAUHWND__@@XZ 100064d0 f i ConEmuCheck.obj
 0001:000054e0       ??BHWND2@@QBEKXZ           100064e0 f i ConEmuCheck.obj
 0001:000054f0       ?ConEmuCheck@@YIHPAPAUHWND__@@@Z 100064f0 f   ConEmuCheck.obj
 0001:00005530       ?GuiMessageBox@@YIHPAUHWND__@@PB_W1H@Z 10006530 f   ConEmuCheck.obj
 0001:00005680       ?InitName@?$MFileMapping@UCESERVER_CONSOLE_MAPPING_HDR@@@@QAEPB_WPB_WKK@Z 10006680 f i ConEmuCheck.obj
 0001:000056d0       ?CloseMap@?$MFileMapping@UCESERVER_CONSOLE_MAPPING_HDR@@@@QAEXXZ 100066d0 f i ConEmuCheck.obj
 0001:00005740       ?Open@?$MFileMapping@UCESERVER_CONSOLE_MAPPING_HDR@@@@QAEPAUCESERVER_CONSOLE_MAPPING_HDR@@HH@Z 10006740 f i ConEmuCheck.obj
 0001:00005760       ??0?$MFileMapping@UCESERVER_CONSOLE_MAPPING_HDR@@@@QAE@XZ 10006760 f i ConEmuCheck.obj
 0001:000057c0       ??1?$MFileMapping@UCESERVER_CONSOLE_MAPPING_HDR@@@@QAE@XZ 100067c0 f i ConEmuCheck.obj
 0001:000057e0       ?InitName@?$MFileMapping@UConEmuGuiMapping@@@@QAEPB_WPB_WKK@Z 100067e0 f i ConEmuCheck.obj
 0001:00005830       ?CloseMap@?$MFileMapping@UConEmuGuiMapping@@@@QAEXXZ 10006830 f i ConEmuCheck.obj
 0001:000058a0       ?Open@?$MFileMapping@UConEmuGuiMapping@@@@QAEPAUConEmuGuiMapping@@HH@Z 100068a0 f i ConEmuCheck.obj
 0001:000058c0       ??0?$MFileMapping@UConEmuGuiMapping@@@@QAE@XZ 100068c0 f i ConEmuCheck.obj
 0001:00005920       ??1?$MFileMapping@UConEmuGuiMapping@@@@QAE@XZ 10006920 f i ConEmuCheck.obj
 0001:00005940       ?ClosePtr@?$MFileMapping@UCESERVER_CONSOLE_MAPPING_HDR@@@@QAEXXZ 10006940 f i ConEmuCheck.obj
 0001:00005970       ?InternalOpenCreate@?$MFileMapping@UCESERVER_CONSOLE_MAPPING_HDR@@@@IAEPAUCESERVER_CONSOLE_MAPPING_HDR@@HHH@Z 10006970 f i ConEmuCheck.obj
 0001:00005b50       ?ClosePtr@?$MFileMapping@UConEmuGuiMapping@@@@QAEXXZ 10006b50 f i ConEmuCheck.obj
 0001:00005b80       ?InternalOpenCreate@?$MFileMapping@UConEmuGuiMapping@@@@IAEPAUConEmuGuiMapping@@HHH@Z 10006b80 f i ConEmuCheck.obj
 0001:00005d60       ??$wcscpy_c@$0CA@@@YIHAAY0CA@_WPB_W@Z 10006d60 f i ConEmuCheck.obj
 0001:00005d90       ??$wcscpy_c@$0CAI@@@YIHAAY0CAI@_WPB_W@Z 10006d90 f i ConEmuCheck.obj
 0001:00005dc0       ?LoadGuiMapping@@YIHPAUHWND__@@AAUConEmuGuiMapping@@@Z 10006dc0 f   ConEmuCheckEx.obj
 0001:00005e00       ?IsConEmuExeExist@@YIHPB_WAAY0BAF@_W@Z 10006e00 f   ConEmuCheckEx.obj
 0001:00005eb0       ?FindConEmuBaseDir@@YIHAAY0BAF@_W0PAUHINSTANCE__@@@Z 10006eb0 f   ConEmuCheckEx.obj
 0001:00006460       ??$wcscpy_c@$0BAF@@@YIHAAY0BAF@_WPB_W@Z 10007460 f i ConEmuCheckEx.obj
 0001:00006570       ??$wcscpy_add@$0BAF@@@YIHPA_WAAY0BAF@_WPB_W@Z 10007570 f i ConEmuCheckEx.obj
 0001:000065c0       ??$wcscat_c@$0BAF@@@YIHAAY0BAF@_WPB_W@Z 100075c0 f i ConEmuCheckEx.obj
 0001:000065f0       ?StringCchCatW@@YGJPA_WIPB_W@Z 100075f0 f i ConEmuCheckEx.obj
 0001:00006710       ?StartupHooks@@YI_NPAUHINSTANCE__@@@Z 10007710 f   ConEmuInjects.obj
 0001:00006ae0       ?ShutdownHooks@@YIXXZ      10007ae0 f   ConEmuInjects.obj
 0001:00006c90       ??$wcscpy_c@$0EA@@@YIHAAY0EA@_WPB_W@Z 10007c90 f i ConEmuInjects.obj
 0001:00006da0       _DllMain@12                10007da0 f   ConEmuPlugin.obj
 0001:00006de0       ?GetPluginInfo@@YGXPAX@Z   10007de0 f   ConEmuPlugin.obj
 0001:00006e50       ?GetPluginInfoW@@YGXPAX@Z  10007e50 f   ConEmuPlugin.obj
 0001:00006e80       ?IsConsoleActive@@YGHXZ    10007e80 f   ConEmuPlugin.obj
 0001:00006ee0       ?GetFarHWND2@@YGPAUHWND__@@H@Z 10007ee0 f   ConEmuPlugin.obj
 0001:00006f50       ?GetFarHWND@@YGPAUHWND__@@XZ 10007f50 f   ConEmuPlugin.obj
 0001:00006f60       ?IsTerminalMode@@YGHXZ     10007f60 f   ConEmuPlugin.obj
 0001:00006f70       ?GetFarVersion@@YGXPAUFarVersion@@@Z 10007f70 f   ConEmuPlugin.obj
 0001:00006fa0       ?RegisterPanelView@@YGHPAUPanelViewInit@@@Z 10007fa0 f   ConEmuPlugin.obj
 0001:00007190       ?RegisterBackground@@YGHPAURegisterBackgroundArg@@@Z 10008190 f   ConEmuPlugin.obj
 0001:00007220       ?SyncExecute@@YGHPAUHINSTANCE__@@P6GXJ@ZJ@Z 10008220 f   ConEmuPlugin.obj
 0001:00007270       ?ActivateConsole@@YGHXZ    10008270 f   ConEmuPlugin.obj
 0001:00007300       ??4HWND2@@QAEAAU0@PAUHWND__@@@Z 10008300 f i ConEmuPlugin.obj
 0001:00007320       ?SetStartupInfo@@YGXPAX@Z  10008320 f   ConEmuPlugin.obj
 0001:00007390       _SetStartupInfoW@4         10008390 f   ConEmuPlugin.obj
 0001:000073c0       ?GetMinFarVersion@@YGHXZ   100083c0 f   ConEmuPlugin.obj
 0001:00007410       _GetMinFarVersionW@0       10008410 f   ConEmuPlugin.obj
 0001:00007420       _ProcessSynchroEventW@8    10008420 f   ConEmuPlugin.obj
 0001:00007440       ?ProcessSynchroEventW3@@YGHPAX@Z 10008440 f   ConEmuPlugin.obj
 0001:00007470       ?ProcessEditorEvent@@YGHHPAX@Z 10008470 f   ConEmuPlugin.obj
 0001:00007490       _ProcessEditorEventW@8     10008490 f   ConEmuPlugin.obj
 0001:000074b0       ?ProcessEditorEventW3@@YGHPAX@Z 100084b0 f   ConEmuPlugin.obj
 0001:000074e0       ?ProcessViewerEvent@@YGHHPAX@Z 100084e0 f   ConEmuPlugin.obj
 0001:00007500       _ProcessViewerEventW@8     10008500 f   ConEmuPlugin.obj
 0001:00007520       ?ProcessViewerEventW3@@YGHPAX@Z 10008520 f   ConEmuPlugin.obj
 0001:00007550       ?ProcessEditorInput@@YGHPBU_INPUT_RECORD@@@Z 10008550 f   ConEmuPlugin.obj
 0001:00007570       _ProcessEditorInputW@4     10008570 f   ConEmuPlugin.obj
 0001:000075a0       ?OpenPlugin@@YGPAXHH@Z     100085a0 f   ConEmuPlugin.obj
 0001:000075c0       _OpenPluginW@8             100085c0 f   ConEmuPlugin.obj
 0001:00007600       ?OpenW@@YGPAXPBX@Z         10008600 f   ConEmuPlugin.obj
 0001:00007630       ?ExitFAR@@YGXXZ            10008630 f   ConEmuPlugin.obj
 0001:00007680       _ExitFARW@0                10008680 f   ConEmuPlugin.obj
 0001:000076d0       ?ExitFARW3@@YGXPAX@Z       100086d0 f   ConEmuPlugin.obj
 0001:00007730       ?SetupExportsFar3@@YIXXZ   10008730 f   ConEmuPlugin.obj
 0001:00007950       ?_calloc@@YIPAXII@Z        10008950 f   ConEmuPlugin.obj
 0001:00007970       ?_malloc@@YIPAXI@Z         10008970 f   ConEmuPlugin.obj
 0001:00007990       ?_free@@YIXPAX@Z           10008990 f   ConEmuPlugin.obj
 0001:000079b0       ??0CPluginW1900@@QAE@XZ    100089b0 f   ConEmuPlugin1900.obj
 0001:00007c40       ??_GCPluginW1900@@UAEPAXI@Z 10008c40 f i ConEmuPlugin1900.obj
 0001:00007c40       ??_ECPluginW1900@@UAEPAXI@Z 10008c40 f i ConEmuPlugin1900.obj
 0001:00007c70       ??1CPluginW1900@@UAE@XZ    10008c70 f i ConEmuPlugin1900.obj
 0001:00007c90       ?ProcessEditorEventPtr@CPluginW1900@@UAEHPAX@Z 10008c90 f   ConEmuPlugin1900.obj
 0001:00007cc0       ?ProcessViewerEventPtr@CPluginW1900@@UAEHPAX@Z 10008cc0 f   ConEmuPlugin1900.obj
 0001:00007cf0       ?ProcessSynchroEventPtr@CPluginW1900@@UAEHPAX@Z 10008cf0 f   ConEmuPlugin1900.obj
 0001:00007d20       ?GetPanelDir@CPluginW1900@@UAEPA_WKPA_WH@Z 10008d20 f   ConEmuPlugin1900.obj
 0001:00007eb0       ?GetPanelInfo@CPluginW1900@@UAE_NKPAUCEPanelInfo@@@Z 10008eb0 f   ConEmuPlugin1900.obj
 0001:00008330       ?GetPanelItemInfo@CPluginW1900@@UAE_NABUCEPanelInfo@@_NHAAU_WIN32_FIND_DATAW@@PAPA_W@Z 10009330 f   ConEmuPlugin1900.obj
 0001:00008560       ?PanelControlApi@CPluginW1900@@UAEHPAXHH0@Z 10009560 f   ConEmuPlugin1900.obj
 0001:000085b0       ?GetPluginInfoPtr@CPluginW1900@@UAEXPAX@Z 100095b0 f   ConEmuPlugin1900.obj
 0001:00008630       ?SetStartupInfoPtr@CPluginW1900@@UAEXPAX@Z 10009630 f   ConEmuPlugin1900.obj
 0001:000087a0       ?GetEditorModifiedState@CPluginW1900@@UAEKXZ 100097a0 f   ConEmuPlugin1900.obj
 0001:000087e0       ?ProcessEditorInputPtr@CPluginW1900@@UAEHPBX@Z 100097e0 f   ConEmuPlugin1900.obj
 0001:00008820       ?GetWindowCount@CPluginW1900@@UAEHXZ 10009820 f   ConEmuPlugin1900.obj
 0001:00008870       ?UpdateConEmuTabsApi@CPluginW1900@@UAE_NH@Z 10009870 f   ConEmuPlugin1900.obj
 0001:00008e50       ?ExitFar@CPluginW1900@@UAEXXZ 10009e50 f   ConEmuPlugin1900.obj
 0001:00008ee0       ?ShowMessage@CPluginW1900@@UAEHPB_WH_N@Z 10009ee0 f   ConEmuPlugin1900.obj
 0001:00008f90       ?GetMsg@CPluginW1900@@UAEPB_WHPA_WI@Z 10009f90 f   ConEmuPlugin1900.obj
 0001:00009010       ?SetWindow@CPluginW1900@@UAEXH@Z 1000a010 f   ConEmuPlugin1900.obj
 0001:00009070       ?PostMacroApi@CPluginW1900@@UAEXPB_WPAU_INPUT_RECORD@@_N@Z 1000a070 f   ConEmuPlugin1900.obj
 0001:000097c0       ?wcsstr@@YAPA_WPA_WPB_W@Z  1000a7c0 f i ConEmuPlugin1900.obj
 0001:000097e0       ?ShowPluginMenu@CPluginW1900@@UAEHPAUConEmuPluginMenuItem@@HH@Z 1000a7e0 f   ConEmuPlugin1900.obj
 0001:000099d0       ?OpenEditor@CPluginW1900@@UAE_NPB_W_N11HH@Z 1000a9d0 f   ConEmuPlugin1900.obj
 0001:00009b20       ?ExecuteSynchroApi@CPluginW1900@@UAE_NXZ 1000ab20 f   ConEmuPlugin1900.obj
 0001:00009b60       ?WaitEndSynchro@CPluginW1900@@UAEXXZ 1000ab60 f   ConEmuPlugin1900.obj
 0001:00009b70       ?StopWaitEndSynchro@CPluginW1900@@UAEXXZ 1000ab70 f   ConEmuPlugin1900.obj
 0001:00009b80       ?IsMacroActive@CPluginW1900@@UAE_NXZ 1000ab80 f   ConEmuPlugin1900.obj
 0001:00009bd0       ?GetMacroArea@CPluginW1900@@UAEHXZ 1000abd0 f   ConEmuPlugin1900.obj
 0001:00009c00       ?RedrawAll@CPluginW1900@@UAEXXZ 1000ac00 f   ConEmuPlugin1900.obj
 0001:00009c40       ?InputBox@CPluginW1900@@UAE_NPB_W000AAPA_W@Z 1000ac40 f   ConEmuPlugin1900.obj
 0001:00009cc0       ?ShowUserScreen@CPluginW1900@@UAEX_N@Z 1000acc0 f   ConEmuPlugin1900.obj
 0001:00009d10       ?LoadFarColors@CPluginW1900@@UAEXAAY0BAA@E@Z 1000ad10 f   ConEmuPlugin1900.obj
 0001:00009ed0       ?FarColor_3_2@@YIEABUFarColor@@@Z 1000aed0 f i ConEmuPlugin1900.obj
 0001:00009ff0       ?Color2FgIndex@Far3Color@@SIXKAAGPBK@Z 1000aff0 f i ConEmuPlugin1900.obj
 0001:0000a130       ?Max@Far3Color@@SIHHH@Z    1000b130 f i ConEmuPlugin1900.obj
 0001:0000a160       ?GetStdIndex@Far3Color@@SIHKPBK@Z 1000b160 f i ConEmuPlugin1900.obj
 0001:0000a1c0       ?GetStdPalette@Far3Color@@SIPBKXZ 1000b1c0 f i ConEmuPlugin1900.obj
 0001:0000a1d0       ?Color2BgIndex@Far3Color@@SIXKHAAGPBK@Z 1000b1d0 f i ConEmuPlugin1900.obj
 0001:0000a340       ?LoadFarSettings@CPluginW1900@@UAEXPAUCEFarInterfaceSettings@@PAUCEFarPanelSettings@@@Z 1000b340 f   ConEmuPlugin1900.obj
 0001:0000a550       ?GetFarRect@CPluginW1900@@UAE_NAAU_SMALL_RECT@@@Z 1000b550 f   ConEmuPlugin1900.obj
 0001:0000a5c0       ?CheckPanelExist@CPluginW1900@@UAE_NXZ 1000b5c0 f   ConEmuPlugin1900.obj
 0001:0000a610       ?GetActiveWindowType@CPluginW1900@@UAEHXZ 1000b610 f   ConEmuPlugin1900.obj
 0001:0000a6d0       ?GetWindowTypeName@CPluginW1900@@UAEPB_WH@Z 1000b6d0 f   ConEmuPlugin1900.obj
 0001:0000a760       ?GuiMacroDlg@CPluginW1900@@UAEXXZ 1000b760 f   ConEmuPlugin1900.obj
 0001:0000ad40       ?Open@CPluginW1900@@UAEPAXPBX@Z 1000bd40 f   ConEmuPlugin1900.obj
 0001:0000aee0       _GetGlobalInfoW@4          1000bee0 f   ConEmuPlugin2800.obj
 0001:0000b0c0       ??0CPluginW2800@@QAE@XZ    1000c0c0 f   ConEmuPlugin2800.obj
 0001:0000b350       ??_ECPluginW2800@@UAEPAXI@Z 1000c350 f i ConEmuPlugin2800.obj
 0001:0000b350       ??_GCPluginW2800@@UAEPAXI@Z 1000c350 f i ConEmuPlugin2800.obj
 0001:0000b380       ??1CPluginW2800@@UAE@XZ    1000c380 f i ConEmuPlugin2800.obj
 0001:0000b3a0       ?GetPanelDir@CPluginW2800@@UAEPA_WKPA_WH@Z 1000c3a0 f   ConEmuPlugin2800.obj
 0001:0000b530       ?GetPanelInfo@CPluginW2800@@UAE_NKPAUCEPanelInfo@@@Z 1000c530 f   ConEmuPlugin2800.obj
 0001:0000b9b0       ?GetPanelItemInfo@CPluginW2800@@UAE_NABUCEPanelInfo@@_NHAAU_WIN32_FIND_DATAW@@PAPA_W@Z 1000c9b0 f   ConEmuPlugin2800.obj
 0001:0000bbe0       ?PanelControlApi@CPluginW2800@@UAEHPAXHH0@Z 1000cbe0 f   ConEmuPlugin2800.obj
 0001:0000bc30       ?GetPluginInfoPtr@CPluginW2800@@UAEXPAX@Z 1000cc30 f   ConEmuPlugin2800.obj
 0001:0000bcb0       ?SetStartupInfoPtr@CPluginW2800@@UAEXPAX@Z 1000ccb0 f   ConEmuPlugin2800.obj
 0001:0000be20       ?GetEditorModifiedState@CPluginW2800@@UAEKXZ 1000ce20 f   ConEmuPlugin2800.obj
 0001:0000be60       ?ProcessEditorEventPtr@CPluginW2800@@UAEHPAX@Z 1000ce60 f   ConEmuPlugin2800.obj
 0001:0000be90       ?ProcessViewerEventPtr@CPluginW2800@@UAEHPAX@Z 1000ce90 f   ConEmuPlugin2800.obj
 0001:0000bec0       ?ProcessSynchroEventPtr@CPluginW2800@@UAEHPAX@Z 1000cec0 f   ConEmuPlugin2800.obj
 0001:0000bef0       ?ProcessEditorInputPtr@CPluginW2800@@UAEHPBX@Z 1000cef0 f   ConEmuPlugin2800.obj
 0001:0000bf30       ?GetWindowCount@CPluginW2800@@UAEHXZ 1000cf30 f   ConEmuPlugin2800.obj
 0001:0000bf80       ?UpdateConEmuTabsApi@CPluginW2800@@UAE_NH@Z 1000cf80 f   ConEmuPlugin2800.obj
 0001:0000c800       ?ExitFar@CPluginW2800@@UAEXXZ 1000d800 f   ConEmuPlugin2800.obj
 0001:0000c890       ?ShowMessage@CPluginW2800@@UAEHPB_WH_N@Z 1000d890 f   ConEmuPlugin2800.obj
 0001:0000c940       ?GetMsg@CPluginW2800@@UAEPB_WHPA_WI@Z 1000d940 f   ConEmuPlugin2800.obj
 0001:0000c9c0       ?SetWindow@CPluginW2800@@UAEXH@Z 1000d9c0 f   ConEmuPlugin2800.obj
 0001:0000cab0       ?PostMacroApi@CPluginW2800@@UAEXPB_WPAU_INPUT_RECORD@@_N@Z 1000dab0 f   ConEmuPlugin2800.obj
 0001:0000ce60       ?ShowPluginMenu@CPluginW2800@@UAEHPAUConEmuPluginMenuItem@@HH@Z 1000de60 f   ConEmuPlugin2800.obj
 0001:0000d050       ?OpenEditor@CPluginW2800@@UAE_NPB_W_N11HH@Z 1000e050 f   ConEmuPlugin2800.obj
 0001:0000d1a0       ?ExecuteSynchroApi@CPluginW2800@@UAE_NXZ 1000e1a0 f   ConEmuPlugin2800.obj
 0001:0000d1e0       ?WaitEndSynchro@CPluginW2800@@UAEXXZ 1000e1e0 f   ConEmuPlugin2800.obj
 0001:0000d1f0       ?StopWaitEndSynchro@CPluginW2800@@UAEXXZ 1000e1f0 f   ConEmuPlugin2800.obj
 0001:0000d200       ?IsMacroActive@CPluginW2800@@UAE_NXZ 1000e200 f   ConEmuPlugin2800.obj
 0001:0000d250       ?GetMacroArea@CPluginW2800@@UAEHXZ 1000e250 f   ConEmuPlugin2800.obj
 0001:0000d280       ?RedrawAll@CPluginW2800@@UAEXXZ 1000e280 f   ConEmuPlugin2800.obj
 0001:0000d2c0       ?InputBox@CPluginW2800@@UAE_NPB_W000AAPA_W@Z 1000e2c0 f   ConEmuPlugin2800.obj
 0001:0000d340       ?ShowUserScreen@CPluginW2800@@UAEX_N@Z 1000e340 f   ConEmuPlugin2800.obj
 0001:0000d390       ?LoadFarColors@CPluginW2800@@UAEXAAY0BAA@E@Z 1000e390 f   ConEmuPlugin2800.obj
 0001:0000d550       ?LoadFarSettings@CPluginW2800@@UAEXPAUCEFarInterfaceSettings@@PAUCEFarPanelSettings@@@Z 1000e550 f   ConEmuPlugin2800.obj
 0001:0000d760       ?GetFarRect@CPluginW2800@@UAE_NAAU_SMALL_RECT@@@Z 1000e760 f   ConEmuPlugin2800.obj
 0001:0000d7d0       ?CheckPanelExist@CPluginW2800@@UAE_NXZ 1000e7d0 f   ConEmuPlugin2800.obj
 0001:0000d820       ?GetActiveWindowType@CPluginW2800@@UAEHXZ 1000e820 f   ConEmuPlugin2800.obj
 0001:0000d8f0       ?GetWindowTypeName@CPluginW2800@@UAEPB_WH@Z 1000e8f0 f   ConEmuPlugin2800.obj
 0001:0000d980       ?GuiMacroDlg@CPluginW2800@@UAEXXZ 1000e980 f   ConEmuPlugin2800.obj
 0001:0000def0       ?Open@CPluginW2800@@UAEPAXPBX@Z 1000eef0 f   ConEmuPlugin2800.obj
 0001:0000e120       ??0FarMacroValue@@QAE@XZ   1000f120 f i ConEmuPlugin2800.obj
 0001:0000e160       ??0?$MArray@UWindowInfo@@@@QAE@XZ 1000f160 f i ConEmuPlugin2800.obj
 0001:0000e1a0       ??1?$MArray@UWindowInfo@@@@QAE@XZ 1000f1a0 f i ConEmuPlugin2800.obj
 0001:0000e1c0       ??A?$MArray@UWindowInfo@@@@QBEABUWindowInfo@@H@Z 1000f1c0 f i ConEmuPlugin2800.obj
 0001:0000e1e0       ??A?$MArray@UWindowInfo@@@@QAEAAUWindowInfo@@H@Z 1000f1e0 f i ConEmuPlugin2800.obj
 0001:0000e200       ?push_back@?$MArray@UWindowInfo@@@@QAEHABUWindowInfo@@@Z 1000f200 f i ConEmuPlugin2800.obj
 0001:0000e290       ?insert@?$MArray@UWindowInfo@@@@QAEXHABUWindowInfo@@@Z 1000f290 f i ConEmuPlugin2800.obj
 0001:0000e370       ?clear@?$MArray@UWindowInfo@@@@QAEXXZ 1000f370 f i ConEmuPlugin2800.obj
 0001:0000e3c0       ?erase@?$MArray@UWindowInfo@@@@QAEXH@Z 1000f3c0 f i ConEmuPlugin2800.obj
 0001:0000e450       ?size@?$MArray@UWindowInfo@@@@QBEHXZ 1000f450 f i ConEmuPlugin2800.obj
 0001:0000e470       ?addsize@?$MArray@UWindowInfo@@@@QAEXH@Z 1000f470 f i ConEmuPlugin2800.obj
 0001:0000e560       ??0CPluginW995@@QAE@XZ     1000f560 f   ConEmuPlugin995.obj
 0001:0000e7f0       ?Open@CPluginW995@@UAEPAXPBX@Z 1000f7f0 f i ConEmuPlugin995.obj
 0001:0000e810       ?ProcessEditorEventPtr@CPluginW995@@UAEHPAX@Z 1000f810 f i ConEmuPlugin995.obj
 0001:0000e820       ?ProcessSynchroEventPtr@CPluginW995@@UAEHPAX@Z 1000f820 f i ConEmuPlugin995.obj
 0001:0000e830       ?ProcessViewerEventPtr@CPluginW995@@UAEHPAX@Z 1000f830 f i ConEmuPlugin995.obj
 0001:0000e840       ??_GCPluginW995@@UAEPAXI@Z 1000f840 f i ConEmuPlugin995.obj
 0001:0000e840       ??_ECPluginW995@@UAEPAXI@Z 1000f840 f i ConEmuPlugin995.obj
 0001:0000e870       ??1CPluginW995@@UAE@XZ     1000f870 f i ConEmuPlugin995.obj
 0001:0000e890       ?GetPanelDir@CPluginW995@@UAEPA_WKPA_WH@Z 1000f890 f   ConEmuPlugin995.obj
 0001:0000e9c0       ?GetPanelInfo@CPluginW995@@UAE_NKPAUCEPanelInfo@@@Z 1000f9c0 f   ConEmuPlugin995.obj
 0001:0000eca0       ?GetPanelItemInfo@CPluginW995@@UAE_NABUCEPanelInfo@@_NHAAU_WIN32_FIND_DATAW@@PAPA_W@Z 1000fca0 f   ConEmuPlugin995.obj
 0001:0000eeb0       ?PanelControlApi@CPluginW995@@UAEHPAXHH0@Z 1000feb0 f   ConEmuPlugin995.obj
 0001:0000ef00       ?GetPluginInfoPtr@CPluginW995@@UAEXPAX@Z 1000ff00 f   ConEmuPlugin995.obj
 0001:0000efa0       ?SetStartupInfoPtr@CPluginW995@@UAEXPAX@Z 1000ffa0 f   ConEmuPlugin995.obj
 0001:0000f150       ?GetEditorModifiedState@CPluginW995@@UAEKXZ 10010150 f   ConEmuPlugin995.obj
 0001:0000f190       ?ProcessEditorInputPtr@CPluginW995@@UAEHPBX@Z 10010190 f   ConEmuPlugin995.obj
 0001:0000f1c0       ?GetWindowCount@CPluginW995@@UAEHXZ 100101c0 f   ConEmuPlugin995.obj
 0001:0000f210       ?UpdateConEmuTabsApi@CPluginW995@@UAE_NH@Z 10010210 f   ConEmuPlugin995.obj
 0001:0000f4f0       ?ExitFar@CPluginW995@@UAEXXZ 100104f0 f   ConEmuPlugin995.obj
 0001:0000f580       ?ShowMessage@CPluginW995@@UAEHPB_WH_N@Z 10010580 f   ConEmuPlugin995.obj
 0001:0000f600       ?GetMsg@CPluginW995@@UAEPB_WHPA_WI@Z 10010600 f   ConEmuPlugin995.obj
 0001:0000f680       ?SetWindow@CPluginW995@@UAEXH@Z 10010680 f   ConEmuPlugin995.obj
 0001:0000f6e0       ?PostMacroApi@CPluginW995@@UAEXPB_WPAU_INPUT_RECORD@@_N@Z 100106e0 f   ConEmuPlugin995.obj
 0001:0000f7b0       ?ShowPluginMenu@CPluginW995@@UAEHPAUConEmuPluginMenuItem@@HH@Z 100107b0 f   ConEmuPlugin995.obj
 0001:0000f940       ?OpenEditor@CPluginW995@@UAE_NPB_W_N11HH@Z 10010940 f   ConEmuPlugin995.obj
 0001:0000fa60       ?ExecuteSynchroApi@CPluginW995@@UAE_NXZ 10010a60 f   ConEmuPlugin995.obj
 0001:0000faa0       ?WaitEndSynchro@CPluginW995@@UAEXXZ 10010aa0 f   ConEmuPlugin995.obj
 0001:0000fc50       ?StopWaitEndSynchro@CPluginW995@@UAEXXZ 10010c50 f   ConEmuPlugin995.obj
 0001:0000fc80       ?IsMacroActive@CPluginW995@@UAE_NXZ 10010c80 f   ConEmuPlugin995.obj
 0001:0000fce0       ?GetMacroArea@CPluginW995@@UAEHXZ 10010ce0 f   ConEmuPlugin995.obj
 0001:0000fd20       ?RedrawAll@CPluginW995@@UAEXXZ 10010d20 f   ConEmuPlugin995.obj
 0001:0000fd60       ?InputBox@CPluginW995@@UAE_NPB_W000AAPA_W@Z 10010d60 f   ConEmuPlugin995.obj
 0001:0000fdd0       ?ShowUserScreen@CPluginW995@@UAEX_N@Z 10010dd0 f   ConEmuPlugin995.obj
 0001:0000fe20       ?LoadFarColors@CPluginW995@@UAEXAAY0BAA@E@Z 10010e20 f   ConEmuPlugin995.obj
 0001:0000ff00       ?LoadFarSettings@CPluginW995@@UAEXPAUCEFarInterfaceSettings@@PAUCEFarPanelSettings@@@Z 10010f00 f   ConEmuPlugin995.obj
 0001:0000ff70       ?GetFarRect@CPluginW995@@UAE_NAAU_SMALL_RECT@@@Z 10010f70 f   ConEmuPlugin995.obj
 0001:0000ffe0       ?CheckPanelExist@CPluginW995@@UAE_NXZ 10010fe0 f   ConEmuPlugin995.obj
 0001:00010030       ?GetActiveWindowType@CPluginW995@@UAEHXZ 10011030 f   ConEmuPlugin995.obj
 0001:00010100       ?GetWindowTypeName@CPluginW995@@UAEPB_WH@Z 10011100 f   ConEmuPlugin995.obj
 0001:00010190       ?GuiMacroDlg@CPluginW995@@UAEXXZ 10011190 f   ConEmuPlugin995.obj
 0001:000106e0       ??0CPluginAnsi@@QAE@XZ     100116e0 f   ConEmuPluginA.obj
 0001:00010950       ?ExecuteSynchroApi@CPluginAnsi@@UAE_NXZ 10011950 f i ConEmuPluginA.obj
 0001:00010960       ?GetFarRect@CPluginAnsi@@UAE_NAAU_SMALL_RECT@@@Z 10011960 f i ConEmuPluginA.obj
 0001:00010970       ?Open@CPluginAnsi@@UAEPAXPBX@Z 10011970 f i ConEmuPluginA.obj
 0001:00010990       ?ProcessEditorEventPtr@CPluginAnsi@@UAEHPAX@Z 10011990 f i ConEmuPluginA.obj
 0001:000109a0       ?ProcessEditorInputPtr@CPluginAnsi@@UAEHPBX@Z 100119a0 f i ConEmuPluginA.obj
 0001:000109b0       ?ProcessSynchroEventPtr@CPluginAnsi@@UAEHPAX@Z 100119b0 f i ConEmuPluginA.obj
 0001:000109c0       ?ProcessViewerEventPtr@CPluginAnsi@@UAEHPAX@Z 100119c0 f i ConEmuPluginA.obj
 0001:000109d0       ?StopWaitEndSynchro@CPluginAnsi@@UAEXXZ 100119d0 f i ConEmuPluginA.obj
 0001:000109e0       ?WaitEndSynchro@CPluginAnsi@@UAEXXZ 100119e0 f i ConEmuPluginA.obj
 0001:000109f0       ??_GCPluginAnsi@@UAEPAXI@Z 100119f0 f i ConEmuPluginA.obj
 0001:000109f0       ??_ECPluginAnsi@@UAEPAXI@Z 100119f0 f i ConEmuPluginA.obj
 0001:00010a20       ??1CPluginAnsi@@UAE@XZ     10011a20 f i ConEmuPluginA.obj
 0001:00010a40       ?GetPanelDir@CPluginAnsi@@UAEPA_WKPA_WH@Z 10011a40 f   ConEmuPluginA.obj
 0001:00010b40       ?GetPanelInfo@CPluginAnsi@@UAE_NKPAUCEPanelInfo@@@Z 10011b40 f   ConEmuPluginA.obj
 0001:00010e20       ?GetPanelItemInfo@CPluginAnsi@@UAE_NABUCEPanelInfo@@_NHAAU_WIN32_FIND_DATAW@@PAPA_W@Z 10011e20 f   ConEmuPluginA.obj
 0001:00010fa0       ?PanelControlApi@CPluginAnsi@@UAEHPAXHH0@Z 10011fa0 f   ConEmuPluginA.obj
 0001:00010ff0       ?SetStartupInfoPtr@CPluginAnsi@@UAEXPAX@Z 10011ff0 f   ConEmuPluginA.obj
 0001:000111b0       ?GetPluginInfoPtr@CPluginAnsi@@UAEXPAX@Z 100121b0 f   ConEmuPluginA.obj
 0001:00011260       ?GetEditorModifiedState@CPluginAnsi@@UAEKXZ 10012260 f   ConEmuPluginA.obj
 0001:000112a0       ?GetWindowCount@CPluginAnsi@@UAEHXZ 100122a0 f   ConEmuPluginA.obj
 0001:000112f0       ?UpdateConEmuTabsApi@CPluginAnsi@@UAE_NH@Z 100122f0 f   ConEmuPluginA.obj
 0001:000115b0       ?ExitFar@CPluginAnsi@@UAEXXZ 100125b0 f   ConEmuPluginA.obj
 0001:00011610       ?SetWindow@CPluginAnsi@@UAEXH@Z 10012610 f   ConEmuPluginA.obj
 0001:00011680       ?PostMacroApi@CPluginAnsi@@UAEXPB_WPAU_INPUT_RECORD@@_N@Z 10012680 f   ConEmuPluginA.obj
 0001:00011770       ?ShowPluginMenu@CPluginAnsi@@UAEHPAUConEmuPluginMenuItem@@HH@Z 10012770 f   ConEmuPluginA.obj
 0001:00011960       ?OpenEditor@CPluginAnsi@@UAE_NPB_W_N11HH@Z 10012960 f   ConEmuPluginA.obj
 0001:00011ac0       ?ShowMessage@CPluginAnsi@@UAEHPB_WH_N@Z 10012ac0 f   ConEmuPluginA.obj
 0001:00011b90       ?GetMsg@CPluginAnsi@@UAEPB_WHPA_WI@Z 10012b90 f   ConEmuPluginA.obj
 0001:00011c50       ?IsMacroActive@CPluginAnsi@@UAE_NXZ 10012c50 f   ConEmuPluginA.obj
 0001:00011cc0       ?GetMacroArea@CPluginAnsi@@UAEHXZ 10012cc0 f   ConEmuPluginA.obj
 0001:00011cd0       ?RedrawAll@CPluginAnsi@@UAEXXZ 10012cd0 f   ConEmuPluginA.obj
 0001:00011d10       ?InputBox@CPluginAnsi@@UAE_NPB_W000AAPA_W@Z 10012d10 f   ConEmuPluginA.obj
 0001:00011e40       ?ShowUserScreen@CPluginAnsi@@UAEX_N@Z 10012e40 f   ConEmuPluginA.obj
 0001:00011e90       ?LoadFarColors@CPluginAnsi@@UAEXAAY0BAA@E@Z 10012e90 f   ConEmuPluginA.obj
 0001:00011f80       ?LoadFarSettings@CPluginAnsi@@UAEXPAUCEFarInterfaceSettings@@PAUCEFarPanelSettings@@@Z 10012f80 f   ConEmuPluginA.obj
 0001:00011ff0       ?CheckPanelExist@CPluginAnsi@@UAE_NXZ 10012ff0 f   ConEmuPluginA.obj
 0001:00012040       ?GetActiveWindowType@CPluginAnsi@@UAEHXZ 10013040 f   ConEmuPluginA.obj
 0001:000120c0       ?GetWindowTypeName@CPluginAnsi@@UAEPB_WH@Z 100130c0 f   ConEmuPluginA.obj
 0001:00012150       ?GuiMacroDlg@CPluginAnsi@@UAEXXZ 10013150 f   ConEmuPluginA.obj
 0001:000127a0       ?Plugin@@YIPAVCPluginBase@@XZ 100137a0 f   ConEmuPluginBase.obj
 0001:000128d0       ??0CPluginBase@@QAE@XZ     100138d0 f   ConEmuPluginBase.obj
 0001:00012b80       ??_ECPluginBase@@UAEPAXI@Z 10013b80 f i ConEmuPluginBase.obj
 0001:00012b80       ??_GCPluginBase@@UAEPAXI@Z 10013b80 f i ConEmuPluginBase.obj
 0001:00012bb0       ??1CPluginBase@@UAE@XZ     10013bb0 f   ConEmuPluginBase.obj
 0001:00012bd0       ?DllMain_ProcessAttach@CPluginBase@@KIXPAUHINSTANCE__@@@Z 10013bd0 f   ConEmuPluginBase.obj
 0001:00012cf0       ?DllMain_ProcessDetach@CPluginBase@@KIXXZ 10013cf0 f   ConEmuPluginBase.obj
 0001:00012e60       ??_GMSection@@QAEPAXI@Z    10013e60 f i ConEmuPluginBase.obj
 0001:00012e90       ??_GCPluginBackground@@QAEPAXI@Z 10013e90 f i ConEmuPluginBase.obj
 0001:00012ec0       ?DllCheckUnique@CPluginBase@@KI_N_N@Z 10013ec0 f   ConEmuPluginBase.obj
 0001:00013110       ?LoadFarVersion@CPluginBase@@SI_NXZ 10014110 f   ConEmuPluginBase.obj
 0001:00013750       ?ShowMessageBox@CPluginBase@@KIHPB_WI@Z 10014750 f   ConEmuPluginBase.obj
 0001:00013810       ?ShowMessageGui@CPluginBase@@QAEHHH@Z 10014810 f   ConEmuPluginBase.obj
 0001:000138a0       ?BackgroundMacroError@CPluginBase@@SGKPAX@Z 100148a0 f   ConEmuPluginBase.obj
 0001:000138e0       ?PostMacro@CPluginBase@@QAEXPB_WPAU_INPUT_RECORD@@_N@Z 100148e0 f   ConEmuPluginBase.obj
 0001:000139a0       ?isMacroActive@CPluginBase@@QAE_NAAH@Z 100149a0 f   ConEmuPluginBase.obj
 0001:000139f0       ?CheckBufferEnabled@CPluginBase@@QAE_NXZ 100149f0 f   ConEmuPluginBase.obj
 0001:00013a80       ?PanelControl@CPluginBase@@QAEHPAXHH0@Z 10014a80 f   ConEmuPluginBase.obj
 0001:00013b30       ?GetPanelInfo@CPluginBase@@QAE_NKPAUBkPanelInfo@@@Z 10014b30 f   ConEmuPluginBase.obj
 0001:00013bd0       ?FillUpdateBackground@CPluginBase@@QAEXPAUPaintBackgroundArg@@@Z 10014bd0 f   ConEmuPluginBase.obj
 0001:00013da0       ?StorePanelDirs@CPluginBase@@QAE_NPB_W0@Z 10014da0 f   ConEmuPluginBase.obj
 0001:00013f50       ?UpdatePanelDirs@CPluginBase@@QAEXXZ 10014f50 f   ConEmuPluginBase.obj
 0001:00014150       ?IsFarLua@FarVersion@@QBE_NXZ 10015150 f i ConEmuPluginBase.obj
 0001:000141a0       ?RunExternalProgram@CPluginBase@@QAE_NPA_W@Z 100151a0 f   ConEmuPluginBase.obj
 0001:00014390       ?ProcessCommandLine@CPluginBase@@QAE_NPA_W@Z 10015390 f   ConEmuPluginBase.obj
 0001:000143d0       ?ShowPluginMenu@CPluginBase@@QAEXW4PluginCallCommands@@@Z 100153d0 f   ConEmuPluginBase.obj
 0001:00014680       ?ShowTabsList@CPluginBase@@QAEXXZ 10015680 f   ConEmuPluginBase.obj
 0001:00014a50       ?ShowPanelsList@CPluginBase@@QAEXXZ 10015a50 f   ConEmuPluginBase.obj
 0001:00014bd0       ?DataSize@CESERVER_REQ@@QAEKXZ 10015bd0 f i ConEmuPluginBase.obj
 0001:00014c10       ?EditViewConsoleOutput@CPluginBase@@QAEX_N@Z 10015c10 f   ConEmuPluginBase.obj
 0001:00014cd0       ?SwitchTabCommand@CPluginBase@@QAEXW4PluginMenuCommands@@@Z 10015cd0 f   ConEmuPluginBase.obj
 0001:00014d90       ?ProcessSynchroEvent@CPluginBase@@QAEHHPAX@Z 10015d90 f   ConEmuPluginBase.obj
 0001:00014e40       ?ProcessEditorInputInternal@CPluginBase@@QAEXABU_INPUT_RECORD@@@Z 10015e40 f   ConEmuPluginBase.obj
 0001:00014ea0       ?ProcessEditorViewerEvent@CPluginBase@@QAEHHH@Z 10015ea0 f   ConEmuPluginBase.obj
 0001:00014fb0       ?isEditorViewer@CPluginBase@@QAE_NXZ 10015fb0 f   ConEmuPluginBase.obj
 0001:00015000       ?isModalEditorViewer@CPluginBase@@QAE_NXZ 10016000 f   ConEmuPluginBase.obj
 0001:00015050       ?GetMainThreadId@CPluginBase@@SIKXZ 10016050 f   ConEmuPluginBase.obj
 0001:000150f0       ?ShowConsoleInfo@CPluginBase@@QAEXXZ 100160f0 f   ConEmuPluginBase.obj
 0001:00015270       ?RunExternalProgramW@CPluginBase@@SI_NPA_W0_N@Z 10016270 f   ConEmuPluginBase.obj
 0001:000154e0       ?StartDebugger@CPluginBase@@QAE_NXZ 100164e0 f   ConEmuPluginBase.obj
 0001:00015810       ?Attach2Gui@CPluginBase@@QAE_NXZ 10016810 f   ConEmuPluginBase.obj
 0001:00015cd0       ?FindServerCmd@CPluginBase@@QAE_NKAAK_N@Z 10016cd0 f   ConEmuPluginBase.obj
 0001:00015dc0       ?ShowMessage@CPluginBase@@QAEHHH@Z 10016dc0 f   ConEmuPluginBase.obj
 0001:00015e40       ?OutDataAlloc@CPluginBase@@SI_NK@Z 10016e40 f   ConEmuPluginBase.obj
 0001:00015eb0       ?OutDataRealloc@CPluginBase@@SI_NK@Z 10016eb0 f   ConEmuPluginBase.obj
 0001:00015f90       ?OutDataWrite@CPluginBase@@SI_NPAXK@Z 10016f90 f   ConEmuPluginBase.obj
 0001:00016060       ?CreateTabs@CPluginBase@@SI_NH@Z 10017060 f   ConEmuPluginBase.obj
 0001:00016130       ?AddTab@CPluginBase@@QAE_NAAHH_N1HPB_W2HHHH@Z 10017130 f   ConEmuPluginBase.obj
 0001:00016540       _wmemcmp                   10017540 f i ConEmuPluginBase.obj
 0001:000165a0       ?AddTabFinish@CPluginBase@@QAEXH@Z 100175a0 f   ConEmuPluginBase.obj
 0001:000165c0       ?SendTabs@CPluginBase@@SIXH_N@Z 100175c0 f   ConEmuPluginBase.obj
 0001:000167b0       ?CloseTabs@CPluginBase@@SIXXZ 100177b0 f   ConEmuPluginBase.obj
 0001:00016840       ?UpdateConEmuTabs@CPluginBase@@QAE_N_N@Z 10017840 f   ConEmuPluginBase.obj
 0001:00016b50       ?ShowProtocolWarning@CPluginBase@@KIXXZ 10017b50 f   ConEmuPluginBase.obj
 0001:00016cc0       ?CheckResources@CPluginBase@@QAEX_N@Z 10017cc0 f   ConEmuPluginBase.obj
 0001:00016e80       ?InitResources@CPluginBase@@QAEXXZ 10017e80 f   ConEmuPluginBase.obj
 0001:000170e0       ?CloseMapHeader@CPluginBase@@SIXXZ 100180e0 f   ConEmuPluginBase.obj
 0001:00017110       ?OpenMapHeader@CPluginBase@@SIHXZ 10018110 f   ConEmuPluginBase.obj
 0001:00017230       ?InitRootRegKey@CPluginBase@@IAEXXZ 10018230 f   ConEmuPluginBase.obj
 0001:00017360       ?SetRootRegKey@CPluginBase@@IAEXPA_W@Z 10018360 f   ConEmuPluginBase.obj
 0001:00017460       ?LoadPanelTabsFromRegistry@CPluginBase@@IAEXXZ 10018460 f   ConEmuPluginBase.obj
 0001:00017570       ?InitHWND@CPluginBase@@SIXXZ 10018570 f   ConEmuPluginBase.obj
 0001:00017810       ?CheckConEmuDetached@CPluginBase@@SIXXZ 10018810 f   ConEmuPluginBase.obj
 0001:000178b0       ?EmergencyShow@CPluginBase@@KIXXZ 100188b0 f   ConEmuPluginBase.obj
 0001:00017910       ?MonitorThreadProcW@CPluginBase@@SGKPAX@Z 10018910 f   ConEmuPluginBase.obj
 0001:00017dd0       ?OpenPluginCommon@CPluginBase@@QAEPAXHH_N@Z 10018dd0 f   ConEmuPluginBase.obj
 0001:00018160       ?ExitFarCommon@CPluginBase@@QAEX_N@Z 10019160 f   ConEmuPluginBase.obj
 0001:000181b0       ?OnMainThreadActivated@CPluginBase@@QAEXXZ 100191b0 f   ConEmuPluginBase.obj
 0001:00018380       ?ProcessSetWindowCommand@CPluginBase@@QAEXXZ 10019380 f   ConEmuPluginBase.obj
 0001:000184c0       ?CommonPluginStartup@CPluginBase@@QAEXXZ 100194c0 f   ConEmuPluginBase.obj
 0001:000185e0       ?StopThread@CPluginBase@@QAEX_N@Z 100195e0 f   ConEmuPluginBase.obj
 0001:00018950       ??_G?$MFileMapping@UCESERVER_CONSOLE_MAPPING_HDR@@@@QAEPAXI@Z 10019950 f i ConEmuPluginBase.obj
 0001:00018980       ?ShutdownPluginStep@CPluginBase@@SIXPB_WHHHH@Z 10019980 f   ConEmuPluginBase.obj
 0001:000189a0       ?ExecuteSynchro@CPluginBase@@QAEXXZ 100199a0 f   ConEmuPluginBase.obj
 0001:00018a60       ?WaitPluginActivation@CPluginBase@@SIKKPAPAXHK@Z 10019a60 f   ConEmuPluginBase.obj
 0001:00018bc0       ?ActivatePlugin@CPluginBase@@QAE_NKPAXK@Z 10019bc0 f   ConEmuPluginBase.obj
 0001:00018e50       ?cmd_OpenEditorLine@CPluginBase@@QAE_NPAUCESERVER_REQ_FAREDITOR@@@Z 10019e50 f   ConEmuPluginBase.obj
 0001:00018f40       ?cmd_RedrawFarCall@CPluginBase@@QAE_NAAPAUCESERVER_REQ@@PAPAU2@@Z 10019f40 f   ConEmuPluginBase.obj
 0001:00018ff0       ?cmd_SetWindow@CPluginBase@@QAE_NPAX_N@Z 10019ff0 f   ConEmuPluginBase.obj
 0001:000190b0       ?cmd_LeftClickSync@CPluginBase@@QAEXPAX@Z 1001a0b0 f   ConEmuPluginBase.obj
 0001:000191e0       ?cmd_CloseQSearch@CPluginBase@@QAEXXZ 1001a1e0 f   ConEmuPluginBase.obj
 0001:00019220       ?cmd_EMenu@CPluginBase@@QAEXPAX@Z 1001a220 f   ConEmuPluginBase.obj
 0001:000192f0       ?cmd_ExternalCallback@CPluginBase@@QAE_NPAX@Z 1001a2f0 f   ConEmuPluginBase.obj
 0001:00019370       ?cmd_ConSetFont@CPluginBase@@QAEXPAX@Z 1001a370 f   ConEmuPluginBase.obj
 0001:000193c0       ?cmd_GuiChanged@CPluginBase@@QAEXPAX@Z 1001a3c0 f   ConEmuPluginBase.obj
 0001:000194a0       ?ProcessCommand@CPluginBase@@QAE_NKHPAXPAPAUCESERVER_REQ@@_N@Z 1001a4a0 f   ConEmuPluginBase.obj
 0001:000199d0       ?FarSetConsoleSize@CPluginBase@@SI_NFF@Z 1001a9d0 f   ConEmuPluginBase.obj
 0001:00019af0       ?ReloadFarInfoApi@CPluginBase@@IAE_NXZ 1001aaf0 f   ConEmuPluginBase.obj
 0001:00019d30       ?ReloadFarInfo@CPluginBase@@QAE_N_N@Z 1001ad30 f   ConEmuPluginBase.obj
 0001:0001a000       ?pcc_Selected@CPluginBase@@SI_NW4PluginMenuCommands@@@Z 1001b000 f   ConEmuPluginBase.obj
 0001:0001a070       ?pcc_Disabled@CPluginBase@@SI_NW4PluginMenuCommands@@@Z 1001b070 f   ConEmuPluginBase.obj
 0001:0001a120       ?TouchReadPeekConsoleInputs@CPluginBase@@SIXH@Z 1001b120 f   ConEmuPluginBase.obj
 0001:0001a180       ?OnConsolePeekReadInput@CPluginBase@@SIX_N@Z 1001b180 f   ConEmuPluginBase.obj
 0001:0001a380       ?ActiveServerPID@CESERVER_CONSOLE_MAPPING_HDR@@QBEKXZ 1001b380 f i ConEmuPluginBase.obj
 0001:0001a3c0       ?UngetDummyMouseEvent@CPluginBase@@SI_N_NPAUHookCallbackArg@@@Z 1001b3c0 f   ConEmuPluginBase.obj
 0001:0001a5f0       ??4HANDLE2@@QAEAAU0@PAX@Z  1001b5f0 f i ConEmuPluginBase.obj
 0001:0001a610       ?FillLoadedParm@CPluginBase@@SIXPAUConEmuLoadedArg@@PAUHINSTANCE__@@H@Z 1001b610 f   ConEmuPluginBase.obj
 0001:0001a6f0       ?NotifyConEmuUnloaded@CPluginBase@@SIXXZ 1001b6f0 f   ConEmuPluginBase.obj
 0001:0001a830       ?OnPanelViewCallbacks@CPluginBase@@SI_NPAUHookCallbackArg@@P6GHPAXPAU_INPUT_RECORD@@KPAKPAH@Z5@Z 1001b830 f   ConEmuPluginBase.obj
 0001:0001a910       ?OnShellExecuteExW_Except@CPluginBase@@SGXPAUHookCallbackArg@@@Z 1001b910 f   ConEmuPluginBase.obj
 0001:0001a950       ?OnGetNumberOfConsoleInputEventsPost@CPluginBase@@SGXPAUHookCallbackArg@@@Z 1001b950 f   ConEmuPluginBase.obj
 0001:0001a990       ?OnConsolePeekInput@CPluginBase@@SGHPAUHookCallbackArg@@@Z 1001b990 f   ConEmuPluginBase.obj
 0001:0001aa10       ?OnConsolePeekInputPost@CPluginBase@@SGXPAUHookCallbackArg@@@Z 1001ba10 f   ConEmuPluginBase.obj
 0001:0001aa50       ?OnConsoleReadInputWork@CPluginBase@@SIHPAUHookCallbackArg@@@Z 1001ba50 f   ConEmuPluginBase.obj
 0001:0001aaf0       ?OnConsoleReadInput@CPluginBase@@SGHPAUHookCallbackArg@@@Z 1001baf0 f   ConEmuPluginBase.obj
 0001:0001ab00       ?OnConsoleReadInputPost@CPluginBase@@SGXPAUHookCallbackArg@@@Z 1001bb00 f   ConEmuPluginBase.obj
 0001:0001ad40       ?OnWriteConsoleOutput@CPluginBase@@SGHPAUHookCallbackArg@@@Z 1001bd40 f   ConEmuPluginBase.obj
 0001:0001ae20       ?OnConsoleDetaching@CPluginBase@@SGHPAUHookCallbackArg@@@Z 1001be20 f   ConEmuPluginBase.obj
 0001:0001af50       ?OnConsoleWasAttached@CPluginBase@@SGXPAUHookCallbackArg@@@Z 1001bf50 f   ConEmuPluginBase.obj
 0001:0001afc0       ?OnCurDirChanged@CPluginBase@@SGXXZ 1001bfc0 f   ConEmuPluginBase.obj
 0001:0001b040       ?OnLibraryLoaded@CPluginBase@@SGXPAUHINSTANCE__@@@Z 1001c040 f   ConEmuPluginBase.obj
 0001:0001b0c0       ?ToUnicode@CPluginBase@@SIPA_WPBD@Z 1001c0c0 f   ConEmuPluginBase.obj
 0001:0001b140       ?ToOem@CPluginBase@@SIXPB_WPADH@Z 1001c140 f   ConEmuPluginBase.obj
 0001:0001b190       ?ToOem@CPluginBase@@SIPADPB_W@Z 1001c190 f   ConEmuPluginBase.obj
 0001:0001b1f0       ?ProcessDragFrom@CPluginBase@@QAEXXZ 1001c1f0 f   ConEmuPluginBase.obj
 0001:0001b7e0       ?ProcessDragTo@CPluginBase@@QAEXXZ 1001c7e0 f   ConEmuPluginBase.obj
 0001:0001bbe0       ?IsCurrentTabModal@CPluginBase@@QAE_NXZ 1001cbe0 f   ConEmuPluginBase.obj
 0001:0001bca0       ?PrintText@CPluginBase@@QAE_NPB_W@Z 1001cca0 f   ConEmuPluginBase.obj
 0001:0001bdf0       ?Ptr@?$MFileMapping@UCESERVER_CONSOLE_MAPPING_HDR@@@@QAEPAUCESERVER_CONSOLE_MAPPING_HDR@@XZ 1001cdf0 f i ConEmuPluginBase.obj
 0001:0001be10       ??$wcscpy_c@$0BBE@@@YIHAAY0BBE@_WPB_W@Z 1001ce10 f i ConEmuPluginBase.obj
 0001:0001be40       ??$wcscat_c@$0BBE@@@YIHAAY0BBE@_WPB_W@Z 1001ce40 f i ConEmuPluginBase.obj
 0001:0001be70       ??$wcscat_c@$0CAE@@@YIHAAY0CAE@_WPB_W@Z 1001ce70 f i ConEmuPluginBase.obj
 0001:0001bea0       ?EvaluateDefaultFontWidth@@YIHHPB_W@Z 1001cea0 f   EmergencyShow.obj
 0001:0001bfe0       ?SetUserFriendlyFont@@YIXPAUHWND__@@HH@Z 1001cfe0 f   EmergencyShow.obj
 0001:0001c4d0       ?CorrectConsolePos@@YIXPAUHWND__@@@Z 1001d4d0 f   EmergencyShow.obj
 0001:0001c610       ?EmergencyShow@@YIXPAUHWND__@@HH@Z 1001d610 f   EmergencyShow.obj
 0001:0001c760       ?IsFileBatch@@YI_NPB_W@Z   1001d760 f   Execute.obj
 0001:0001c7e0       ?GetImageSubsystem@@YI_NPB_WAAK11@Z 1001d7e0 f   Execute.obj
 0001:0001cb00       ?GetImageSubsystem@@YI_NAAK0@Z 1001db00 f   Execute.obj
 0001:0001cbb0       ?GetImageSubsystem@@YI_NU_PROCESS_INFORMATION@@AAK1@Z 1001dbb0 f   Execute.obj
 0001:0001cda0       ?GetEnclosingSectionHeader@@YIPAU_IMAGE_SECTION_HEADER@@KPAUIMAGE_MAPPING@@@Z 1001dda0 f   Execute.obj
 0001:0001ce30       ?GetPtrFromRVA@@YIPAXKPAUIMAGE_MAPPING@@@Z 1001de30 f   Execute.obj
 0001:0001ce90       ?FindImageSubsystem@@YI_NPB_WAAK1PAK@Z 1001de90 f   Execute.obj
 0001:0001d870       ?OnHooksUnloaded@@YGXXZ    1001e870 f   HkFunc.obj
 0001:0001d880       ??0HkFunc@@QAE@XZ          1001e880 f   HkFunc.obj
 0001:0001d8a0       ?Init@HkFunc@@QAE_NPB_WPAUHINSTANCE__@@@Z 1001e8a0 f   HkFunc.obj
 0001:0001d970       ?SetInternalMode@HkFunc@@QAEXXZ 1001e970 f   HkFunc.obj
 0001:0001d990       ?isConEmuHk@HkFunc@@QAE_NXZ 1001e990 f   HkFunc.obj
 0001:0001d9b0       ?StripSourceRoot@@YIPB_WPB_W@Z 1001e9b0 f   MAssert.obj
 0001:0001da40       ?HeapInitialize@@YI_NXZ    1001ea40 f   Memory.obj
 0001:0001da70       ?HeapDeinitialize@@YIXXZ   1001ea70 f   Memory.obj
 0001:0001daa0       ?xf_malloc@@YAPAXI@Z       1001eaa0 f   Memory.obj
 0001:0001dad0       ?xf_calloc@@YAPAXII@Z      1001ead0 f   Memory.obj
 0001:0001db00       ?xf_realloc@@YAPAXPAXI@Z   1001eb00 f   Memory.obj
 0001:0001db40       ?xf_free@@YAXPAX@Z         1001eb40 f   Memory.obj
 0001:0001db70       ?xf_validate@@YA_NPAX@Z    1001eb70 f   Memory.obj
 0001:0001db80       ??2@YAPAXI@Z               1001eb80 f   Memory.obj
 0001:0001dbb0       ??_U@YAPAXI@Z              1001ebb0 f   Memory.obj
 0001:0001dbd0       ??3@YAXPAX@Z               1001ebd0 f   Memory.obj
 0001:0001dbf0       ??_V@YAXPAX@Z              1001ebf0 f   Memory.obj
 0001:0001dc10       ?GetStartupMonitor@@YIPAUHMONITOR__@@XZ 1001ec10 f   Monitors.obj
 0001:0001dd00       ?MonitorFromParam@@YIPAUHMONITOR__@@PB_W@Z 1001ed00 f   Monitors.obj
 0001:0001dec0       ?FindMonitorsWorkspace@@YGHPAUHMONITOR__@@PAUHDC__@@PAUtagRECT@@J@Z 1001eec0 f   Monitors.obj
 0001:0001df40       ?GetAllMonitorsWorkspace@@YI?AUtagRECT@@XZ 1001ef40 f   Monitors.obj
 0001:0001dfc0       ?FindPrimaryMonitor@@YGHPAUHMONITOR__@@PAUHDC__@@PAUtagRECT@@J@Z 1001efc0 f   Monitors.obj
 0001:0001e040       ?GetMonitorInfoSafe@@YI_NPAUHMONITOR__@@AAUtagMONITORINFO@@@Z 1001f040 f   Monitors.obj
 0001:0001e090       ?GetPrimaryMonitorInfo@@YIPAUHMONITOR__@@PAUtagMONITORINFO@@@Z 1001f090 f   Monitors.obj
 0001:0001e140       ?GetNearestMonitorInfo@@YIPAUHMONITOR__@@PAUtagMONITORINFO@@PAU1@PBUtagRECT@@PAUHWND__@@@Z 1001f140 f   Monitors.obj
 0001:0001e230       ?EnumAllMonitors@@YGHPAUHMONITOR__@@PAUHDC__@@PAUtagRECT@@J@Z 1001f230 f   Monitors.obj
 0001:0001e2a0       ?MonitorSortCallback@@YIHAAU_FindAllMonitorsItem@@0@Z 1001f2a0 f   Monitors.obj
 0001:0001e310       ?GetNextMonitorInfo@@YIPAUHMONITOR__@@PAUtagMONITORINFO@@PBUtagRECT@@_N@Z 1001f310 f   Monitors.obj
 0001:0001e4e0       ??0_FindAllMonitors@@QAE@XZ 1001f4e0 f i Monitors.obj
 0001:0001e500       ??1_FindAllMonitors@@QAE@XZ 1001f500 f i Monitors.obj
 0001:0001e520       ?FindTaskbarWindow@@YIPAUHWND__@@PAUtagRECT@@@Z 1001f520 f   Monitors.obj
 0001:0001e590       ?IsTaskbarAutoHidden@@YI_NPAUtagRECT@@PAI@Z 1001f590 f   Monitors.obj
 0001:0001e650       ??0?$MArray@U_FindAllMonitorsItem@@@@QAE@XZ 1001f650 f i Monitors.obj
 0001:0001e690       ??1?$MArray@U_FindAllMonitorsItem@@@@QAE@XZ 1001f690 f i Monitors.obj
 0001:0001e6b0       ??A?$MArray@U_FindAllMonitorsItem@@@@QAEAAU_FindAllMonitorsItem@@H@Z 1001f6b0 f i Monitors.obj
 0001:0001e6d0       ?push_back@?$MArray@U_FindAllMonitorsItem@@@@QAEHABU_FindAllMonitorsItem@@@Z 1001f6d0 f i Monitors.obj
 0001:0001e760       ?size@?$MArray@U_FindAllMonitorsItem@@@@QBEHXZ 1001f760 f i Monitors.obj
 0001:0001e780       ?sort@?$MArray@U_FindAllMonitorsItem@@@@QAEXP6IHAAU_FindAllMonitorsItem@@0@Z@Z 1001f780 f i Monitors.obj
 0001:0001e870       ?clear@?$MArray@U_FindAllMonitorsItem@@@@QAEXXZ 1001f870 f i Monitors.obj
 0001:0001e8c0       ?addsize@?$MArray@U_FindAllMonitorsItem@@@@QAEXH@Z 1001f8c0 f i Monitors.obj
 0001:0001eab0       ?GetProcessInfo@@YI_NKPAUtagPROCESSENTRY32W@@@Z 1001fab0 f   MProcess.obj
 0001:0001eb10       ??0MToolHelpProcess@@QAE@XZ 1001fb10 f i MProcess.obj
 0001:0001eb40       ?Find@MToolHelpProcess@@QAE_NKPAUtagPROCESSENTRY32W@@@Z 1001fb40 f i MProcess.obj
 0001:0001eb70       ??_GMToolHelpProcess@@UAEPAXI@Z 1001fb70 f i MProcess.obj
 0001:0001eb70       ??_EMToolHelpProcess@@UAEPAXI@Z 1001fb70 f i MProcess.obj
 0001:0001eba0       ??1MToolHelpProcess@@UAE@XZ 1001fba0 f i MProcess.obj
 0001:0001ebc0       ?GetProcessInfo@@YI_NPB_WPAUtagPROCESSENTRY32W@@@Z 1001fbc0 f   MProcess.obj
 0001:0001ec20       ?Find@MToolHelpProcess@@QAE_NPB_WPAUtagPROCESSENTRY32W@@@Z 1001fc20 f i MProcess.obj
 0001:0001ec70       ?isTerminalMode@@YI_NXZ    1001fc70 f   MProcess.obj
 0001:0001eda0       ?Filter@?$MToolHelp@UtagPROCESSENTRY32W@@$1?Process32FirstW@@YGHPAXPAU1@@Z$1?Process32NextW@@YGH01@Z@@MAE_NPAUtagPROCESSENTRY32W@@@Z 1001fda0 f i MProcess.obj
 0001:0001edb0       ??0?$MToolHelp@UtagPROCESSENTRY32W@@$1?Process32FirstW@@YGHPAXPAU1@@Z$1?Process32NextW@@YGH01@Z@@QAE@KK@Z 1001fdb0 f i MProcess.obj
 0001:0001ee40       ??1?$MToolHelp@UtagPROCESSENTRY32W@@$1?Process32FirstW@@YGHPAXPAU1@@Z$1?Process32NextW@@YGH01@Z@@UAE@XZ 1001fe40 f i MProcess.obj
 0001:0001ee70       ?Find@?$MToolHelp@UtagPROCESSENTRY32W@@$1?Process32FirstW@@YGHPAXPAU1@@Z$1?Process32NextW@@YGH01@Z@@QAE_NP6I_NPAUtagPROCESSENTRY32W@@J@ZJ0@Z 1001fe70 f i MProcess.obj
 0001:0001ef00       ?push_back@?$MArray@UtagPROCESSENTRY32W@@@@QAEHABUtagPROCESSENTRY32W@@@Z 1001ff00 f i MProcess.obj
 0001:0001efa0       ??_E?$MToolHelp@UtagPROCESSENTRY32W@@$1?Process32FirstW@@YGHPAXPAU1@@Z$1?Process32NextW@@YGH01@Z@@UAEPAXI@Z 1001ffa0 f i MProcess.obj
 0001:0001efa0       ??_G?$MToolHelp@UtagPROCESSENTRY32W@@$1?Process32FirstW@@YGHPAXPAU1@@Z$1?Process32NextW@@YGH01@Z@@UAEPAXI@Z 1001ffa0 f i MProcess.obj
 0001:0001efd0       ?Close@?$MToolHelp@UtagPROCESSENTRY32W@@$1?Process32FirstW@@YGHPAXPAU1@@Z$1?Process32NextW@@YGH01@Z@@QAEX_N@Z 1001ffd0 f i MProcess.obj
 0001:0001f070       ?Reset@?$MToolHelp@UtagPROCESSENTRY32W@@$1?Process32FirstW@@YGHPAXPAU1@@Z$1?Process32NextW@@YGH01@Z@@QAEXXZ 10020070 f i MProcess.obj
 0001:0001f090       ?Next@?$MToolHelp@UtagPROCESSENTRY32W@@$1?Process32FirstW@@YGHPAXPAU1@@Z$1?Process32NextW@@YGH01@Z@@QAE_NPAUtagPROCESSENTRY32W@@@Z 10020090 f i MProcess.obj
 0001:0001f110       ?size@?$MArray@UtagPROCESSENTRY32W@@@@QBEHXZ 10020110 f i MProcess.obj
 0001:0001f130       ??0?$MArray@UtagPROCESSENTRY32W@@@@QAE@XZ 10020130 f i MProcess.obj
 0001:0001f170       ??1?$MArray@UtagPROCESSENTRY32W@@@@QAE@XZ 10020170 f i MProcess.obj
 0001:0001f190       ?addsize@?$MArray@UtagPROCESSENTRY32W@@@@QAEXH@Z 10020190 f i MProcess.obj
 0001:0001f280       ?getNext@?$MToolHelp@UtagPROCESSENTRY32W@@$1?Process32FirstW@@YGHPAXPAU1@@Z$1?Process32NextW@@YGH01@Z@@IAE_NXZ 10020280 f i MProcess.obj
 0001:0001f380       ??A?$MArray@UtagPROCESSENTRY32W@@@@QAEAAUtagPROCESSENTRY32W@@H@Z 10020380 f i MProcess.obj
 0001:0001f3a0       ?clear@?$MArray@UtagPROCESSENTRY32W@@@@QAEXXZ 100203a0 f i MProcess.obj
 0001:0001f3f0       ?eraseall@?$MArray@UtagPROCESSENTRY32W@@@@QAEXXZ 100203f0 f i MProcess.obj
 0001:0001f410       ?Open@?$MToolHelp@UtagPROCESSENTRY32W@@$1?Process32FirstW@@YGHPAXPAU1@@Z$1?Process32NextW@@YGH01@Z@@QAE_NXZ 10020410 f i MProcess.obj
 0001:0001f480       ??0MSection@@QAE@XZ        10020480 f   MSection.obj
 0001:0001f530       ??1MSection@@QAE@XZ        10020530 f   MSection.obj
 0001:0001f5d0       ?Process_Lock@MSection@@IAEXXZ 100205d0 f   MSection.obj
 0001:0001f5f0       ?Process_Unlock@MSection@@IAEXXZ 100205f0 f   MSection.obj
 0001:0001f610       ?ThreadTerminated@MSection@@QAEXK@Z 10020610 f   MSection.obj
 0001:0001f660       ?AddRef@MSection@@IAEXK@Z  10020660 f   MSection.obj
 0001:0001f750       ?ReleaseRef@MSection@@IAEHK@Z 10020750 f   MSection.obj
 0001:0001f820       ?WaitUnlocked@MSection@@IAEXKK@Z 10020820 f   MSection.obj
 0001:0001f8c0       ?MyEnterCriticalSection@MSection@@IAE_NK@Z 100208c0 f   MSection.obj
 0001:0001fa30       ?Lock@MSection@@IAEHHK@Z   10020a30 f   MSection.obj
 0001:0001fb80       ?Unlock@MSection@@IAEXH@Z  10020b80 f   MSection.obj
 0001:0001fbf0       ?isLockedExclusive@MSection@@QAE_NXZ 10020bf0 f   MSection.obj
 0001:0001fc40       ??0MSectionThread@@QAE@PAVMSection@@@Z 10020c40 f   MSection.obj
 0001:0001fc70       ??1MSectionThread@@QAE@XZ  10020c70 f   MSection.obj
 0001:0001fca0       ??0MSectionLock@@QAE@XZ    10020ca0 f   MSection.obj
 0001:0001fcd0       ??1MSectionLock@@QAE@XZ    10020cd0 f   MSection.obj
 0001:0001fd00       ?Lock@MSectionLock@@QAEHPAVMSection@@HK@Z 10020d00 f   MSection.obj
 0001:0001fd80       ?RelockExclusive@MSectionLock@@QAEHK@Z 10020d80 f   MSection.obj
 0001:0001fdf0       ?Unlock@MSectionLock@@QAEXXZ 10020df0 f   MSection.obj
 0001:0001fe30       ?isLocked@MSectionLock@@QAEHH@Z 10020e30 f   MSection.obj
 0001:0001fe80       ??0MSectionSimple@@QAE@_N@Z 10020e80 f   MSectionSimple.obj
 0001:0001fed0       ??1MSectionSimple@@QAE@XZ  10020ed0 f   MSectionSimple.obj
 0001:0001fef0       ?IsInitialized@MSectionSimple@@QAE_NXZ 10020ef0 f   MSectionSimple.obj
 0001:0001ff30       ?Init@MSectionSimple@@QAEXXZ 10020f30 f   MSectionSimple.obj
 0001:0001ff60       ?Close@MSectionSimple@@QAEXXZ 10020f60 f   MSectionSimple.obj
 0001:0001ff90       ?Enter@MSectionSimple@@QAEXXZ 10020f90 f   MSectionSimple.obj
 0001:0001ffb0       ?Leave@MSectionSimple@@QAEXXZ 10020fb0 f   MSectionSimple.obj
 0001:0001ffd0       ?TryEnter@MSectionSimple@@QAE_NXZ 10020fd0 f   MSectionSimple.obj
 0001:00020010       ?RecreateAndLock@MSectionSimple@@QAE_NXZ 10021010 f   MSectionSimple.obj
 0001:000200a0       ??0MSectionLockSimple@@QAE@XZ 100210a0 f   MSectionSimple.obj
 0001:000200c0       ??1MSectionLockSimple@@QAE@XZ 100210c0 f   MSectionSimple.obj
 0001:000200e0       ?Lock@MSectionLockSimple@@QAEHPAUMSectionSimple@@K@Z 100210e0 f   MSectionSimple.obj
 0001:00020190       ?Unlock@MSectionLockSimple@@QAEXXZ 10021190 f   MSectionSimple.obj
 0001:000201c0       ?isLocked@MSectionLockSimple@@QAEHXZ 100211c0 f   MSectionSimple.obj
 0001:000201e0       ?NullSecurity@@YIPAU_SECURITY_ATTRIBUTES@@XZ 100211e0 f   MSecurity.obj
 0001:00020230       ??0MNullDesc@@QAE@XZ       10021230 f i MSecurity.obj
 0001:00020290       ?NullSecurity@MNullDesc@@QAEPAU_SECURITY_ATTRIBUTES@@XZ 10021290 f i MSecurity.obj
 0001:00020390       ?LoadAdvApi@MNullDesc@@IAEHXZ 10021390 f i MSecurity.obj
 0001:000205e0       ?UnloadAdvApi@MNullDesc@@IAEXXZ 100215e0 f i MSecurity.obj
 0001:00020610       ?LocalSecurity@@YIPAU_SECURITY_ATTRIBUTES@@XZ 10021610 f   MSecurity.obj
 0001:00020660       ?LocalSecurity@MNullDesc@@QAEPAU_SECURITY_ATTRIBUTES@@XZ 10021660 f i MSecurity.obj
 0001:00020880       ?ShutdownSecurity@@YIXXZ   10021880 f   MSecurity.obj
 0001:000208d0       ??_GMNullDesc@@QAEPAXI@Z   100218d0 f i MSecurity.obj
 0001:00020900       ??1MNullDesc@@QAE@XZ       10021900 f i MSecurity.obj
 0001:00020980       ??0MSetter@@QAE@PAJ@Z      10021980 f   MSetter.obj
 0001:000209c0       ??0MSetter@@QAE@PA_N@Z     100219c0 f   MSetter.obj
 0001:00020a10       ??0MSetter@@QAE@PAKK@Z     10021a10 f   MSetter.obj
 0001:00020a60       ??1MSetter@@QAE@XZ         10021a60 f   MSetter.obj
 0001:00020a80       ?Unlock@MSetter@@QAEXXZ    10021a80 f   MSetter.obj
 0001:00020b10       ?lstrdup@@YIPADPBD@Z       10021b10 f   MStrDup.obj
 0001:00020b80       ?StringCchCopyA@@YGJPADIPBD@Z 10021b80 f i MStrDup.obj
 0001:00020ca0       ?lstrdup@@YIPA_WPB_WI@Z    10021ca0 f   MStrDup.obj
 0001:00020e00       ?lstrdupW@@YIPA_WPBDI@Z    10021e00 f   MStrDup.obj
 0001:00020e80       ?lstrdupA@@YIPADPB_WIPAH@Z 10021e80 f   MStrDup.obj
 0001:00020f60       ?lstrmerge@@YIPA_WPB_W00000000@Z 10021f60 f   MStrDup.obj
 0001:000210b0       ?lstrmerge@@YI_NPAPA_WPB_W1111111@Z 100220b0 f   MStrDup.obj
 0001:00021120       ?msprintf@@YAPB_WPA_WIPB_WZZ 10022120 f   MStrSafe.obj
 0001:00021760       ?msprintf@@YAPBDPADIPBDZZ  10022760 f   MStrSafe.obj
 0001:00021c60       ?lstrcmpni@@YIHPBD0H@Z     10022c60 f   MStrSafe.obj
 0001:00021d90       ?lstrcmpni@@YIHPB_W0H@Z    10022d90 f   MStrSafe.obj
 0001:00021ef0       ?startswith@@YIHPB_W0_N@Z  10022ef0 f   MStrSafe.obj
 0001:00021f80       ??$klMax@H@@YIABHABH0@Z    10022f80 f i MStrSafe.obj
 0001:00021fc0       ??0CPluginBackground@@QAE@XZ 10022fc0 f   PluginBackground.obj
 0001:00022200       ??1CPluginBackground@@QAE@XZ 10023200 f   PluginBackground.obj
 0001:00022450       ?RegisterSubplugin@CPluginBackground@@QAEHPAURegisterBackgroundArg@@@Z 10023450 f   PluginBackground.obj
 0001:00022800       ?ReallocItems@CPluginBackground@@IAEXH@Z 10023800 f   PluginBackground.obj
 0001:00022880       ?OnMainThreadActivated@CPluginBackground@@QAEXHH@Z 10023880 f   PluginBackground.obj
 0001:000229a0       ?SetForceCheck@CPluginBackground@@QAEXXZ 100239a0 f   PluginBackground.obj
 0001:000229d0       ?SetForceUpdate@CPluginBackground@@QAEX_N@Z 100239d0 f   PluginBackground.obj
 0001:00022a10       ?SetForceThLoad@CPluginBackground@@QAEXXZ 10023a10 f   PluginBackground.obj
 0001:00022a50       ?IsParmChanged@CPluginBackground@@IAE_NPAUPaintBackgroundArg@@0@Z 10023a50 f   PluginBackground.obj
 0001:00022d30       ?CheckPanelFolders@CPluginBackground@@IAEXH@Z 10023d30 f   PluginBackground.obj
 0001:00022e30       ?SetDcPanelRect@CPluginBackground@@IAEXPAUtagRECT@@PAUBkPanelInfo@@PAUPaintBackgroundArg@@@Z 10023e30 f   PluginBackground.obj
 0001:00022f70       ?UpdateBackground_Exec@CPluginBackground@@KIXPAURegisterBackgroundArg@@PAUPaintBackgroundArg@@@Z 10023f70 f   PluginBackground.obj
 0001:00022fc0       ?UpdateBackground@CPluginBackground@@IAEXXZ 10023fc0 f   PluginBackground.obj
 0001:00023e30       ?LoadThSet@CPluginBackground@@IAEHH@Z 10024e30 f   PluginBackground.obj
 0001:00024050       ?MonitorBackground@CPluginBackground@@QAEXXZ 10025050 f   PluginBackground.obj
 0001:00024100       ?GetTo@?$MFileMapping@UPanelViewSetMapping@@@@QAE_NPAUPanelViewSetMapping@@H@Z 10025100 f i PluginBackground.obj
 0001:00024150       ?InitName@?$MFileMapping@UPanelViewSetMapping@@@@QAEPB_WPB_WKK@Z 10025150 f i PluginBackground.obj
 0001:000241a0       ?CloseMap@?$MFileMapping@UPanelViewSetMapping@@@@QAEXXZ 100251a0 f i PluginBackground.obj
 0001:00024210       ?Open@?$MFileMapping@UPanelViewSetMapping@@@@QAEPAUPanelViewSetMapping@@HH@Z 10025210 f i PluginBackground.obj
 0001:00024230       ??0?$MFileMapping@UPanelViewSetMapping@@@@QAE@XZ 10025230 f i PluginBackground.obj
 0001:00024290       ??1?$MFileMapping@UPanelViewSetMapping@@@@QAE@XZ 10025290 f i PluginBackground.obj
 0001:000242b0       ?IsValid@?$MFileMapping@UPanelViewSetMapping@@@@QAE_NXZ 100252b0 f i PluginBackground.obj
 0001:000242d0       ?ClosePtr@?$MFileMapping@UPanelViewSetMapping@@@@QAEXXZ 100252d0 f i PluginBackground.obj
 0001:00024300       ?InternalOpenCreate@?$MFileMapping@UPanelViewSetMapping@@@@IAEPAUPanelViewSetMapping@@HHH@Z 10025300 f i PluginBackground.obj
 0001:000245c0       ?PlugServerInit@@YIXXZ     100255c0 f   PluginSrv.obj
 0001:000245d0       ?PlugServerStart@@YI_NXZ   100255d0 f   PluginSrv.obj
 0001:000246c0       ?PlugServerStop@@YIX_N@Z   100256c0 f   PluginSrv.obj
 0001:00024720       ?cmd_FarSetChanged@@YIXPAUFAR_REQ_FARSETCHANGED@@@Z 10025720 f   PluginSrv.obj
 0001:00024790       ?PlugServerCommand@@YGHPAXPAUCESERVER_REQ@@AAPAU1@AAK3J@Z 10025790 f   PluginSrv.obj
 0001:00024ea0       ?PlugServerFree@@YGXPAUCESERVER_REQ@@J@Z 10025ea0 f   PluginSrv.obj
 0001:00024eb0       ?SetOverlapped@?$PipeServer@UCESERVER_REQ@@@@QAEX_N@Z 10025eb0 f i PluginSrv.obj
 0001:00024ed0       ?SetLoopCommands@?$PipeServer@UCESERVER_REQ@@@@QAEX_N@Z 10025ed0 f i PluginSrv.obj
 0001:00024ef0       ?SetDummyAnswerSize@?$PipeServer@UCESERVER_REQ@@@@QAEXH@Z 10025ef0 f i PluginSrv.obj
 0001:00024f10       ?SetMaxCount@?$PipeServer@UCESERVER_REQ@@@@QAEXH@Z 10025f10 f i PluginSrv.obj
 0001:00024f50       ?StartPipeServer@?$PipeServer@UCESERVER_REQ@@@@QAE_N_NPB_WJPAU_SECURITY_ATTRIBUTES@@P6GHPAXPAUCESERVER_REQ@@AAPAU3@AAK6J@ZP6GX4J@ZP6GH3J@Z99@Z 10025f50 f i PluginSrv.obj
 0001:00025130       ?StopPipeServer@?$PipeServer@UCESERVER_REQ@@@@QAEX_NAA_N@Z 10026130 f i PluginSrv.obj
 0001:000257e0       ?BreakConnection@?$PipeServer@UCESERVER_REQ@@@@QAEXPAX@Z 100267e0 f i PluginSrv.obj
 0001:00025800       ?DumpError@?$PipeServer@UCESERVER_REQ@@@@IAEXPAUPipeInst@1@PB_WH@Z 10026800 f i PluginSrv.obj
 0001:000258f0       ?_Disconnect@?$PipeServer@UCESERVER_REQ@@@@IAEXPAUPipeInst@1@_N11@Z 100268f0 f i PluginSrv.obj
 0001:00025970       ?StartPipeInstance@?$PipeServer@UCESERVER_REQ@@@@IAE_NPAUPipeInst@1@@Z 10026970 f i PluginSrv.obj
 0001:00025b10       ?TerminatePipeThread@?$PipeServer@UCESERVER_REQ@@@@KIXAAPAXABUPipeInst@1@AA_N@Z 10026b10 f i PluginSrv.obj
 0001:00025ba0       ?_PipeServerThread@?$PipeServer@UCESERVER_REQ@@@@KGKPAX@Z 10026ba0 f i PluginSrv.obj
 0001:00025c10       ?PipeServerThread@?$PipeServer@UCESERVER_REQ@@@@IAEKPAUPipeInst@1@@Z 10026c10 f i PluginSrv.obj
 0001:00025fa0       ?PipeServerRead@?$PipeServer@UCESERVER_REQ@@@@IAEHPAUPipeInst@1@@Z 10026fa0 f i PluginSrv.obj
 0001:00026330       ?PipeServerWrite@?$PipeServer@UCESERVER_REQ@@@@IAEHPAUPipeInst@1@PBXKPAKH@Z 10027330 f i PluginSrv.obj
 0001:000264d0       ?WaitForClient@?$PipeServer@UCESERVER_REQ@@@@IAE_NPAUPipeInst@1@AAH1@Z 100274d0 f i PluginSrv.obj
 0001:000268b0       ?WriteDummyAnswer@?$PipeServer@UCESERVER_REQ@@@@IAEHPAUPipeInst@1@@Z 100278b0 f i PluginSrv.obj
 0001:00026930       ?WaitOverlapped@?$PipeServer@UCESERVER_REQ@@@@IAEHPAUPipeInst@1@PAK@Z 10027930 f i PluginSrv.obj
 0001:00026b60       ?AllocRequestBuf@PipeInst@?$PipeServer@UCESERVER_REQ@@@@QAEPAUCESERVER_REQ@@K@Z 10027b60 f i PluginSrv.obj
 0001:00026be0       ??$wcscpy_c@$0BAE@@@YIHAAY0BAE@_WPB_W@Z 10027be0 f i PluginSrv.obj
 0001:00026cf0       ?SetConEmuEnvHWND@@YIXPB_WPAUHWND__@@@Z 10027cf0 f   SetEnvVar.obj
 0001:00026d40       ?SetConEmuEnvVar@@YIXPAUHWND__@@@Z 10027d40 f   SetEnvVar.obj
 0001:00026db0       ?SetConEmuEnvVarChild@@YIXPAUHWND__@@0@Z 10027db0 f   SetEnvVar.obj
 0001:00026de0       ?SetConEmuWorkEnvVar@@YIXPAUHINSTANCE__@@@Z 10027de0 f   SetEnvVar.obj
 0001:00026f60       ??0CEnvStrings@@QAE@PA_W@Z 10027f60 f   SetEnvVar.obj
 0001:00026ff0       ??1CEnvStrings@@QAE@XZ     10027ff0 f   SetEnvVar.obj
 0001:00027020       ?SetConsoleInfo@@YIHPAUHWND__@@PAU_CONSOLE_INFO@@@Z 10028020 f   WConsole.obj
 0001:000272e0       ?CreateConsoleSection@ConsoleSectionHelper@@QAEPAXXZ 100282e0 f i WConsole.obj
 0001:00027320       ?GetConsoleSizeInfo@@YIXPAU_CONSOLE_INFO@@@Z 10028320 f   WConsole.obj
 0001:000273d0       ?apiGetConsoleScreenBufferInfoEx@@YIHPAXPAUMY_CONSOLE_SCREEN_BUFFER_INFOEX@@@Z 100283d0 f   WConsole.obj
 0001:00027440       ?apiSetConsoleScreenBufferInfoEx@@YIHPAXPAUMY_CONSOLE_SCREEN_BUFFER_INFOEX@@@Z 10028440 f   WConsole.obj
 0001:000274d0       ?apiGetCurrentConsoleFontEx@@YIHPAXHPAUMY_CONSOLE_FONT_INFOEX@@@Z 100284d0 f   WConsole.obj
 0001:00027550       ?apiSetCurrentConsoleFontEx@@YIHPAXHPAUMY_CONSOLE_FONT_INFOEX@@@Z 10028550 f   WConsole.obj
 0001:000275d0       ?apiInitConsoleFontSize@@YIHPAX@Z 100285d0 f   WConsole.obj
 0001:00027650       ?apiGetConsoleFontSize@@YIHPAXAAH1AAY0CA@_W@Z 10028650 f   WConsole.obj
 0001:000276f0       ?apiSetConsoleFontSize@@YIHPAXHHPB_W@Z 100286f0 f   WConsole.obj
 0001:00027820       ?apiFixFontSizeForBufferSize@@YIHPAXU_COORD@@PADH@Z 10028820 f   WConsole.obj
 0001:00027d30       ?SetConsoleFontSizeTo@@YIXPAUHWND__@@HHPB_WGG@Z 10028d30 f   WConsole.obj
 0001:000281a0       ?CreateConsoleData@ConsoleSectionHelper@@QAEPAU_CONSOLE_INFO@@XZ 100291a0 f i WConsole.obj
 0001:000281e0       ?apiPauseConsoleOutput@@YIHPAUHWND__@@_N@Z 100291e0 f   WConsole.obj
 0001:000282c0       ?apiGetConsoleSelectionInfo@@YIHPAU_CONSOLE_SELECTION_INFO@@@Z 100292c0 f   WConsole.obj
 0001:000283b0       ?MyGetLargestConsoleWindowSize@@YI?AU_COORD@@PAX@Z 100293b0 f   WConsole.obj
 0001:00028430       ??0MSetConTextAttr@@QAE@PAXG@Z 10029430 f   WConsole.obj
 0001:000284a0       ??1MSetConTextAttr@@QAE@XZ 100294a0 f   WConsole.obj
 0001:000284e0       ??0ConsoleSectionHelper@@QAE@XZ 100294e0 f i WConsole.obj
 0001:00028510       ??1ConsoleSectionHelper@@QAE@XZ 10029510 f i WConsole.obj
 0001:00028560       ?SearchAppPaths@@YI_NPB_WAAUCEStr@@_NPAU1@@Z 10029560 f   WFiles.obj
 0001:00028aa0       ?GetFullPathNameEx@@YIPA_WPB_W@Z 10029aa0 f   WFiles.obj
 0001:00028b50       ?FindFileName@@YI_NPB_WAAUCEStr@@@Z 10029b50 f   WFiles.obj
 0001:00028d40       ?MakePathProperCase@@YI_NAAUCEStr@@@Z 10029d40 f   WFiles.obj
 0001:00028f70       ?ReadTextFile@@YIHPB_WKAAPA_WAAK2K@Z 10029f70 f   WFiles.obj
 0001:000293c0       ?WriteTextFile@@YIHPB_W0HK_NPAK@Z 1002a3c0 f   WFiles.obj
 0001:00029640       ?FilesExists@@YI_NPB_W0_NH@Z 1002a640 f   WFiles.obj
 0001:00029790       ?IsDotsName@@YI_NPB_W@Z    1002a790 f   WFiles.obj
 0001:000297f0       ?FileExistSubDir@@YI_NPB_W0HAAUCEStr@@@Z 1002a7f0 f   WFiles.obj
 0001:000299f0       ?DirectoryExists@@YI_NPB_W@Z 1002a9f0 f   WFiles.obj
 0001:00029b50       ?MyCreateDirectory@@YI_NPA_W@Z 1002ab50 f   WFiles.obj
 0001:00029c90       ?FileCompare@@YI_NPB_W0@Z  1002ac90 f   WFiles.obj
 0001:00029eb0       ?apiCancelSynchronousIo@@YIHPAX@Z 1002aeb0 f   WFiles.obj
 0001:00029f40       ?HasZoneIdentifier@@YI_NPB_WAAH@Z 1002af40 f   WFiles.obj
 0001:0002a000       ?DropZoneIdentifier@@YI_NPB_WAAK@Z 1002b000 f   WFiles.obj
 0001:0002a0b0       ?IsModuleValid@@YI_NPAUHINSTANCE__@@H@Z 1002b0b0 f   WModuleCheck.obj
 0001:0002a1f0       ?CheckCallbackPtr@@YI_NPAUHINSTANCE__@@IPAP6GHXZHHH@Z 1002b1f0 f   WModuleCheck.obj
 0001:0002a340       ?FileExists@@YI_NPB_WPAK@Z 1002b340 f   WObjects.obj
 0001:0002a520       ?apiSearchPath@@YIHPB_W00AAUCEStr@@@Z 1002b520 f   WObjects.obj
 0001:0002a680       ?apiGetFullPathName@@YIHPB_WAAUCEStr@@@Z 1002b680 f   WObjects.obj
 0001:0002a7d0       ?FileSearchInDir@@YI_NPB_WAAUCEStr@@@Z 1002b7d0 f   WObjects.obj
 0001:0002a990       ?FileExistsSearch@@YI_NPB_WAAUCEStr@@_N2@Z 1002b990 f   WObjects.obj
 0001:0002aaa0       ?GetShortFileName@@YI_NPB_WHPA_WH@Z 1002baa0 f   WObjects.obj
 0001:0002acb0       ?GetShortFileNameEx@@YIPA_WPB_WH@Z 1002bcb0 f   WObjects.obj
 0001:0002b0e0       ?GetModulePathName@@YIKPAUHINSTANCE__@@AAUCEStr@@@Z 1002c0e0 f   WObjects.obj
 0001:0002b190       ?IsWine@@YI_NXZ            1002c190 f   WObjects.obj
 0001:0002b2b0       ?IsWinPE@@YI_NXZ           1002c2b0 f   WObjects.obj
 0001:0002b320       ?GetOsVersionInformational@@YI_NPAU_OSVERSIONINFOW@@@Z 1002c320 f   WObjects.obj
 0001:0002b350       ?IsWinVerOrHigher@@YI_NG@Z 1002c350 f   WObjects.obj
 0001:0002b400       ?IsWinVerEqual@@YI_NG@Z    1002c400 f   WObjects.obj
 0001:0002b4b0       ?IsWin2kEql@@YI_NXZ        1002c4b0 f   WObjects.obj
 0001:0002b4f0       ?IsWin5family@@YI_NXZ      1002c4f0 f   WObjects.obj
 0001:0002b580       ?IsWinXPSP1@@YI_NXZ        1002c580 f   WObjects.obj
 0001:0002b640       ?IsWin6@@YI_NXZ            1002c640 f   WObjects.obj
 0001:0002b680       ?IsWin7@@YI_NXZ            1002c680 f   WObjects.obj
 0001:0002b6c0       ?IsWin8@@YI_NXZ            1002c6c0 f   WObjects.obj
 0001:0002b700       ?IsWin8_1@@YI_NXZ          1002c700 f   WObjects.obj
 0001:0002b740       ?IsWin10@@YI_NXZ           1002c740 f   WObjects.obj
 0001:0002b7e0       ?IsDbcs@@YI_NXZ            1002c7e0 f   WObjects.obj
 0001:0002b800       ?IsWindows64@@YI_NXZ       1002c800 f   WObjects.obj
 0001:0002b890       ?IsHwFullScreenAvailable@@YI_NXZ 1002c890 f   WObjects.obj
 0001:0002b930       ?IsVsNetHostExe@@YI_NPB_W@Z 1002c930 f   WObjects.obj
 0001:0002b9b0       ?IsGDB@@YI_NPB_W@Z         1002c9b0 f   WObjects.obj
 0001:0002ba00       ?ExpandMacroValues@@YIPA_WPB_WPAPB_WI@Z 1002ca00 f   WObjects.obj
 0001:0002bbc0       ?ExpandEnvStr@@YIPA_WPB_W@Z 1002cbc0 f   WObjects.obj
 0001:0002bca0       ?GetEnvVar@@YIPA_WPB_W@Z   1002cca0 f   WObjects.obj
 0001:0002bd70       ?GetComspecFromEnvVar@@YIPB_WPA_WKW4ComSpecBits@@@Z 1002cd70 f   WObjects.obj
 0001:0002bff0       ?GetComspec@@YIPA_WPBUConEmuComspec@@@Z 1002cff0 f   WObjects.obj
 0001:0002c230       ?IsExportEnvVarAllowed@@YI_NPB_W@Z 1002d230 f   WObjects.obj
 0001:0002c2b0       ?ApplyExportEnvVar@@YIXPB_W@Z 1002d2b0 f   WObjects.obj
 0001:0002c330       ?CoordInSmallRect@@YI_NABU_COORD@@ABU_SMALL_RECT@@@Z 1002d330 f   WObjects.obj
 0001:0002c3a0       ?GetCpFromString@@YIIPB_WPAPB_W@Z 1002d3a0 f   WObjects.obj
 0001:0002c510       ?apiThreadHelper@@YGKPAX@Z 1002d510 f   WThreads.obj
 0001:0002c690       ?apiCreateThread@@YIPAXP6GKPAX@Z0PAKPBDH@Z 1002d690 f   WThreads.obj
 0001:0002c800       ??0ConEmuThreadStartArg@@QAE@P6GKPAX@Z0K@Z 1002d800 f i WThreads.obj
 0001:0002c840       ?apiTerminateThreadEx@@YIHPAXKPBDH@Z 1002d840 f   WThreads.obj
 0001:0002c950       ?wasTerminateThreadCalled@@YI_NXZ 1002d950 f   WThreads.obj
 0001:0002c970       ?SetThreadName@@YIXKPAD@Z  1002d970 f   WThreads.obj
 0001:0002ca00       ?apiSetForegroundWindow@@YI_NPAUHWND__@@@Z 1002da00 f   WUser.obj
 0001:0002ca30       ?apiShowWindow@@YI_NPAUHWND__@@H@Z 1002da30 f   WUser.obj
 0001:0002ca60       ?apiShowWindowAsync@@YI_NPAUHWND__@@H@Z 1002da60 f   WUser.obj
 0001:0002ca90       ?getWindowInfo@@YIXPAUHWND__@@AAY0EAA@_W_NPAK@Z 1002da90 f   WUser.obj
 0001:0002cc50       ?IsUserAdmin@@YI_NXZ       1002dc50 f   WUser.obj
 0001:0002cd40       ?GetLogonSID@@YI_NPAXPAPA_W@Z 1002dd40 f   WUser.obj
 0001:0002ce60       ?DuplicateProcessHandle@@YIPAXK@Z 1002de60 f   WUser.obj
 0001:0002ced0       ?FindComspec@@YIXPAUConEmuComspec@@_N@Z 1002ded0 f   WUser.obj
 0001:0002d8a0       ?UpdateComspec@@YIXPAUConEmuComspec@@_N@Z 1002e8a0 f   WUser.obj
 0001:0002dbe0       ?SetEnvVarExpanded@@YIXPB_W0@Z 1002ebe0 f   WUser.obj
 0001:0002dce0       ??$wcscpy_c@$0EAA@@@YIHAAY0EAA@_WPB_W@Z 1002ece0 f i WUser.obj
 0001:0002ddf0       ??$wcscpy_c@$0BAA@@@YIHAAY0BAA@_WPB_W@Z 1002edf0 f i WUser.obj
 0001:0002de18       _SetEnvironmentVariableW@8 1002ee18 f   kernel32:KERNEL32.dll
 0001:0002de1e       _lstrcmpiW@8               1002ee1e f   kernel32:KERNEL32.dll
 0001:0002de24       _lstrcmpW@8                1002ee24 f   kernel32:KERNEL32.dll
 0001:0002de2a       _lstrlenW@4                1002ee2a f   kernel32:KERNEL32.dll
 0001:0002de30       _lstrcpynW@12              1002ee30 f   kernel32:KERNEL32.dll
 0001:0002de36       _GetCurrentDirectoryW@8    1002ee36 f   kernel32:KERNEL32.dll
 0001:0002de3c       _GetProcAddress@8          1002ee3c f   kernel32:KERNEL32.dll
 0001:0002de42       _GetModuleHandleW@4        1002ee42 f   kernel32:KERNEL32.dll
 0001:0002de48       _GetModuleFileNameW@12     1002ee48 f   kernel32:KERNEL32.dll
 0001:0002de4e       _SetNamedPipeHandleState@16 1002ee4e f   kernel32:KERNEL32.dll
 0001:0002de54       _GetCurrentProcessId@0     1002ee54 f   kernel32:KERNEL32.dll
 0001:0002de5a       _Sleep@4                   1002ee5a f   kernel32:KERNEL32.dll
 0001:0002de60       _SetLastError@4            1002ee60 f   kernel32:KERNEL32.dll
 0001:0002de66       _WaitNamedPipeW@8          1002ee66 f   kernel32:KERNEL32.dll
 0001:0002de6c       _WaitForSingleObject@8     1002ee6c f   kernel32:KERNEL32.dll
 0001:0002de72       _GetLastError@0            1002ee72 f   kernel32:KERNEL32.dll
 0001:0002de78       _CreateFileW@28            1002ee78 f   kernel32:KERNEL32.dll
 0001:0002de7e       _GetTickCount@0            1002ee7e f   kernel32:KERNEL32.dll
 0001:0002de84       _IsDebuggerPresent@0       1002ee84 f   kernel32:KERNEL32.dll
 0001:0002de8a       _GetCurrentThreadId@0      1002ee8a f   kernel32:KERNEL32.dll
 0001:0002de90       _ReadFile@20               1002ee90 f   kernel32:KERNEL32.dll
 0001:0002de96       _CloseHandle@4             1002ee96 f   kernel32:KERNEL32.dll
 0001:0002de9c       _TransactNamedPipe@28      1002ee9c f   kernel32:KERNEL32.dll
 0001:0002dea2       _WriteFile@20              1002eea2 f   kernel32:KERNEL32.dll
 0001:0002dea8       _GetConsoleWindow@0        1002eea8 f   kernel32:KERNEL32.dll
 0001:0002deae       _UnmapViewOfFile@4         1002eeae f   kernel32:KERNEL32.dll
 0001:0002deb4       _MapViewOfFile@20          1002eeb4 f   kernel32:KERNEL32.dll
 0001:0002deba       _OpenFileMappingW@12       1002eeba f   kernel32:KERNEL32.dll
 0001:0002dec0       _CreateFileMappingW@24     1002eec0 f   kernel32:KERNEL32.dll
 0001:0002dec6       _LoadLibraryW@4            1002eec6 f   kernel32:KERNEL32.dll
 0001:0002decc       _VirtualProtect@16         1002eecc f   kernel32:KERNEL32.dll
 0001:0002ded2       _lstrcpyW@8                1002eed2 f   kernel32:KERNEL32.dll
 0001:0002ded8       _MultiByteToWideChar@24    1002eed8 f   kernel32:KERNEL32.dll
 0001:0002dede       _lstrcpynA@12              1002eede f   kernel32:KERNEL32.dll
 0001:0002dee4       _lstrlenA@4                1002eee4 f   kernel32:KERNEL32.dll
 0001:0002deea       _WideCharToMultiByte@32    1002eeea f   kernel32:KERNEL32.dll
 0001:0002def0       _lstrcpyA@8                1002eef0 f   kernel32:KERNEL32.dll
 0001:0002def6       _Module32NextW@8           1002eef6 f   kernel32:KERNEL32.dll
 0001:0002defc       _Module32FirstW@8          1002eefc f   kernel32:KERNEL32.dll
 0001:0002df02       _CreateToolhelp32Snapshot@8 1002ef02 f   kernel32:KERNEL32.dll
 0001:0002df08       _GetConsoleCursorInfo@8    1002ef08 f   kernel32:KERNEL32.dll
 0001:0002df0e       _GetConsoleScreenBufferInfo@8 1002ef0e f   kernel32:KERNEL32.dll
 0001:0002df14       _GetStdHandle@4            1002ef14 f   kernel32:KERNEL32.dll
 0001:0002df1a       _InterlockedIncrement@4    1002ef1a f   kernel32:KERNEL32.dll
 0001:0002df20       _GetConsoleTitleW@8        1002ef20 f   kernel32:KERNEL32.dll
 0001:0002df26       _DeleteFileW@4             1002ef26 f   kernel32:KERNEL32.dll
 0001:0002df2c       _Thread32Next@8            1002ef2c f   kernel32:KERNEL32.dll
 0001:0002df32       _Thread32First@8           1002ef32 f   kernel32:KERNEL32.dll
 0001:0002df38       _GetConsoleMode@8          1002ef38 f   kernel32:KERNEL32.dll
 0001:0002df3e       _GetExitCodeProcess@8      1002ef3e f   kernel32:KERNEL32.dll
 0001:0002df44       _CreateProcessW@40         1002ef44 f   kernel32:KERNEL32.dll
 0001:0002df4a       _SetConsoleMode@8          1002ef4a f   kernel32:KERNEL32.dll
 0001:0002df50       _GetEnvironmentStringsW@0  1002ef50 f   kernel32:KERNEL32.dll
 0001:0002df56       _lstrcatW@8                1002ef56 f   kernel32:KERNEL32.dll
 0001:0002df5c       _GetEnvironmentVariableW@12 1002ef5c f   kernel32:KERNEL32.dll
 0001:0002df62       _WaitForMultipleObjects@16 1002ef62 f   kernel32:KERNEL32.dll
 0001:0002df68       _CreateEventW@16           1002ef68 f   kernel32:KERNEL32.dll
 0001:0002df6e       _SetConsoleTitleW@4        1002ef6e f   kernel32:KERNEL32.dll
 0001:0002df74       _CreateSemaphoreW@16       1002ef74 f   kernel32:KERNEL32.dll
 0001:0002df7a       _ResetEvent@4              1002ef7a f   kernel32:KERNEL32.dll
 0001:0002df80       _TerminateProcess@8        1002ef80 f   kernel32:KERNEL32.dll
 0001:0002df86       _GetCurrentProcess@0       1002ef86 f   kernel32:KERNEL32.dll
 0001:0002df8c       _SetEvent@4                1002ef8c f   kernel32:KERNEL32.dll
 0001:0002df92       _IsBadStringPtrW@8         1002ef92 f   kernel32:KERNEL32.dll
 0001:0002df98       _InterlockedDecrement@4    1002ef98 f   kernel32:KERNEL32.dll
 0001:0002df9e       _ReleaseSemaphore@12       1002ef9e f   kernel32:KERNEL32.dll
 0001:0002dfa4       _WriteConsoleInputW@16     1002efa4 f   kernel32:KERNEL32.dll
 0001:0002dfaa       _GetNumberOfConsoleInputEvents@8 1002efaa f   kernel32:KERNEL32.dll
 0001:0002dfb0       _ReadConsoleInputW@16      1002efb0 f   kernel32:KERNEL32.dll
 0001:0002dfb6       _PeekConsoleInputW@16      1002efb6 f   kernel32:KERNEL32.dll
 0001:0002dfbc       _SuspendThread@4           1002efbc f   kernel32:KERNEL32.dll
 0001:0002dfc2       _ResumeThread@4            1002efc2 f   kernel32:KERNEL32.dll
 0001:0002dfc8       _VerifyVersionInfoW@16     1002efc8 f   kernel32:KERNEL32.dll
 0001:0002dfce       _VerSetConditionMask@16    1002efce f   kernel32:KERNEL32.dll
 0001:0002dfd4       _ReleaseMutex@4            1002efd4 f   kernel32:KERNEL32.dll
 0001:0002dfda       _CreateMutexW@12           1002efda f   kernel32:KERNEL32.dll
 0001:0002dfe0       _SetFilePointer@16         1002efe0 f   kernel32:KERNEL32.dll
 0001:0002dfe6       _GetFileInformationByHandle@8 1002efe6 f   kernel32:KERNEL32.dll
 0001:0002dfec       _ReadProcessMemory@20      1002efec f   kernel32:KERNEL32.dll
 0001:0002dff2       _FreeLibrary@4             1002eff2 f   kernel32:KERNEL32.dll
 0001:0002dff8       _ExpandEnvironmentStringsW@12 1002eff8 f   kernel32:KERNEL32.dll
 0001:0002dffe       _SearchPathW@24            1002effe f   kernel32:KERNEL32.dll
 0001:0002e004       _DebugBreak@0              1002f004 f   kernel32:KERNEL32.dll
 0001:0002e00a       _HeapCreate@12             1002f00a f   kernel32:KERNEL32.dll
 0001:0002e010       _HeapDestroy@4             1002f010 f   kernel32:KERNEL32.dll
 0001:0002e016       _HeapAlloc@12              1002f016 f   kernel32:KERNEL32.dll
 0001:0002e01c       _HeapReAlloc@16            1002f01c f   kernel32:KERNEL32.dll
 0001:0002e022       _HeapFree@12               1002f022 f   kernel32:KERNEL32.dll
 0001:0002e028       _GetStartupInfoW@4         1002f028 f   kernel32:KERNEL32.dll
 0001:0002e02e       _Process32NextW@8          1002f02e f   kernel32:KERNEL32.dll
 0001:0002e034       _Process32FirstW@8         1002f034 f   kernel32:KERNEL32.dll
 0001:0002e03a       _OpenThread@12             1002f03a f   kernel32:KERNEL32.dll
 0001:0002e040       _InitializeCriticalSection@4 1002f040 f   kernel32:KERNEL32.dll
 0001:0002e046       _DeleteCriticalSection@4   1002f046 f   kernel32:KERNEL32.dll
 0001:0002e04c       _EnterCriticalSection@4    1002f04c f   kernel32:KERNEL32.dll
 0001:0002e052       _LeaveCriticalSection@4    1002f052 f   kernel32:KERNEL32.dll
 0001:0002e058       _TryEnterCriticalSection@4 1002f058 f   kernel32:KERNEL32.dll
 0001:0002e05e       _LocalFree@4               1002f05e f   kernel32:KERNEL32.dll
 0001:0002e064       _LocalAlloc@8              1002f064 f   kernel32:KERNEL32.dll
 0001:0002e06a       _lstrcmpiA@8               1002f06a f   kernel32:KERNEL32.dll
 0001:0002e070       _GetExitCodeThread@8       1002f070 f   kernel32:KERNEL32.dll
 0001:0002e076       _DisconnectNamedPipe@4     1002f076 f   kernel32:KERNEL32.dll
 0001:0002e07c       _SetThreadPriority@8       1002f07c f   kernel32:KERNEL32.dll
 0001:0002e082       _FlushFileBuffers@4        1002f082 f   kernel32:KERNEL32.dll
 0001:0002e088       _GetOverlappedResult@16    1002f088 f   kernel32:KERNEL32.dll
 0001:0002e08e       _ConnectNamedPipe@8        1002f08e f   kernel32:KERNEL32.dll
 0001:0002e094       _CreateNamedPipeW@32       1002f094 f   kernel32:KERNEL32.dll
 0001:0002e09a       _FreeEnvironmentStringsW@4 1002f09a f   kernel32:KERNEL32.dll
 0001:0002e0a0       _SetConsoleWindowInfo@12   1002f0a0 f   kernel32:KERNEL32.dll
 0001:0002e0a6       _GetConsoleOutputCP@0      1002f0a6 f   kernel32:KERNEL32.dll
 0001:0002e0ac       _GetLargestConsoleWindowSize@4 1002f0ac f   kernel32:KERNEL32.dll
 0001:0002e0b2       _SetConsoleTextAttribute@8 1002f0b2 f   kernel32:KERNEL32.dll
 0001:0002e0b8       _FindClose@4               1002f0b8 f   kernel32:KERNEL32.dll
 0001:0002e0be       _FindFirstFileW@8          1002f0be f   kernel32:KERNEL32.dll
 0001:0002e0c4       _GetFileSize@8             1002f0c4 f   kernel32:KERNEL32.dll
 0001:0002e0ca       _FindNextFileW@8           1002f0ca f   kernel32:KERNEL32.dll
 0001:0002e0d0       _CreateDirectoryW@8        1002f0d0 f   kernel32:KERNEL32.dll
 0001:0002e0d6       _GetFileSizeEx@8           1002f0d6 f   kernel32:KERNEL32.dll
 0001:0002e0dc       _GetPrivateProfileIntW@16  1002f0dc f   kernel32:KERNEL32.dll
 0001:0002e0e2       _WritePrivateProfileStringW@16 1002f0e2 f   kernel32:KERNEL32.dll
 0001:0002e0e8       _IsBadReadPtr@8            1002f0e8 f   kernel32:KERNEL32.dll
 0001:0002e0ee       _VirtualFree@12            1002f0ee f   kernel32:KERNEL32.dll
 0001:0002e0f4       _VirtualAlloc@16           1002f0f4 f   kernel32:KERNEL32.dll
 0001:0002e0fa       _GetSystemInfo@4           1002f0fa f   kernel32:KERNEL32.dll
 0001:0002e100       _GetFullPathNameW@16       1002f100 f   kernel32:KERNEL32.dll
 0001:0002e106       _GetVersionExW@4           1002f106 f   kernel32:KERNEL32.dll
 0001:0002e10c       _GetWindowsDirectoryW@8    1002f10c f   kernel32:KERNEL32.dll
 0001:0002e112       _CreateThread@24           1002f112 f   kernel32:KERNEL32.dll
 0001:0002e118       _TerminateThread@8         1002f118 f   kernel32:KERNEL32.dll
 0001:0002e11e       _RaiseException@16         1002f11e f   kernel32:KERNEL32.dll
 0001:0002e124       _DuplicateHandle@28        1002f124 f   kernel32:KERNEL32.dll
 0001:0002e12a       _OpenProcess@12            1002f12a f   kernel32:KERNEL32.dll
 0001:0002e130       _CharUpperBuffW@8          1002f130 f   user32:USER32.dll
 0001:0002e136       _MapVirtualKeyW@8          1002f136 f   user32:USER32.dll
 0001:0002e13c       _VkKeyScanW@4              1002f13c f   user32:USER32.dll
 0001:0002e142       _IsWindow@4                1002f142 f   user32:USER32.dll
 0001:0002e148       _GetWindowLongW@8          1002f148 f   user32:USER32.dll
 0001:0002e14e       _GetClassNameW@12          1002f14e f   user32:USER32.dll
 0001:0002e154       _MessageBoxW@16            1002f154 f   user32:USER32.dll
 0001:0002e15a       _GetWindowThreadProcessId@8 1002f15a f   user32:USER32.dll
 0001:0002e160       _FindWindowW@8             1002f160 f   user32:USER32.dll
 0001:0002e166       _wsprintfW                 1002f166 f   user32:USER32.dll
 0001:0002e16c       _GetParent@4               1002f16c f   user32:USER32.dll
 0001:0002e172       _RegisterWindowMessageW@4  1002f172 f   user32:USER32.dll
 0001:0002e178       _IsWindowVisible@4         1002f178 f   user32:USER32.dll
 0001:0002e17e       _PostMessageW@16           1002f17e f   user32:USER32.dll
 0001:0002e184       _GetSystemMetrics@4        1002f184 f   user32:USER32.dll
 0001:0002e18a       _GetMonitorInfoW@8         1002f18a f   user32:USER32.dll
 0001:0002e190       _MonitorFromWindow@8       1002f190 f   user32:USER32.dll
 0001:0002e196       _SetWindowPos@28           1002f196 f   user32:USER32.dll
 0001:0002e19c       _GetWindowRect@8           1002f19c f   user32:USER32.dll
 0001:0002e1a2       _EnableWindow@8            1002f1a2 f   user32:USER32.dll
 0001:0002e1a8       _IsWindowEnabled@4         1002f1a8 f   user32:USER32.dll
 0001:0002e1ae       _MonitorFromPoint@12       1002f1ae f   user32:USER32.dll
 0001:0002e1b4       _GetCursorPos@4            1002f1b4 f   user32:USER32.dll
 0001:0002e1ba       _EnumDisplayMonitors@16    1002f1ba f   user32:USER32.dll
 0001:0002e1c0       _IsRectEmpty@4             1002f1c0 f   user32:USER32.dll
 0001:0002e1c6       _SystemParametersInfoW@16  1002f1c6 f   user32:USER32.dll
 0001:0002e1cc       _MonitorFromRect@8         1002f1cc f   user32:USER32.dll
 0001:0002e1d2       _IntersectRect@12          1002f1d2 f   user32:USER32.dll
 0001:0002e1d8       _FindWindowExW@16          1002f1d8 f   user32:USER32.dll
 0001:0002e1de       _FillRect@12               1002f1de f   user32:USER32.dll
 0001:0002e1e4       _ReleaseDC@8               1002f1e4 f   user32:USER32.dll
 0001:0002e1ea       _GetDC@4                   1002f1ea f   user32:USER32.dll
 0001:0002e1f0       _ActivateKeyboardLayout@8  1002f1f0 f   user32:USER32.dll
 0001:0002e1f6       _LoadKeyboardLayoutW@8     1002f1f6 f   user32:USER32.dll
 0001:0002e1fc       _SendMessageW@16           1002f1fc f   user32:USER32.dll
 0001:0002e202       _SendMessageTimeoutW@28    1002f202 f   user32:USER32.dll
 0001:0002e208       _wsprintfA                 1002f208 f   user32:USER32.dll
 0001:0002e20e       _SetForegroundWindow@4     1002f20e f   user32:USER32.dll
 0001:0002e214       _ShowWindow@8              1002f214 f   user32:USER32.dll
 0001:0002e21a       _ShowWindowAsync@8         1002f21a f   user32:USER32.dll
 0001:0002e220       _GetWindowTextW@12         1002f220 f   user32:USER32.dll
 0001:0002e226       _DeleteObject@4            1002f226 f   gdi32:GDI32.dll
 0001:0002e22c       _DeleteDC@4                1002f22c f   gdi32:GDI32.dll
 0001:0002e232       _GetTextMetricsW@8         1002f232 f   gdi32:GDI32.dll
 0001:0002e238       _SelectObject@8            1002f238 f   gdi32:GDI32.dll
 0001:0002e23e       _CreateCompatibleDC@4      1002f23e f   gdi32:GDI32.dll
 0001:0002e244       _CreateFontIndirectW@4     1002f244 f   gdi32:GDI32.dll
 0001:0002e24a       _DeleteEnhMetaFile@4       1002f24a f   gdi32:GDI32.dll
 0001:0002e250       _GetEnhMetaFileBits@12     1002f250 f   gdi32:GDI32.dll
 0001:0002e256       _CloseEnhMetaFile@4        1002f256 f   gdi32:GDI32.dll
 0001:0002e25c       _GdiFlush@0                1002f25c f   gdi32:GDI32.dll
 0001:0002e262       _CreateSolidBrush@4        1002f262 f   gdi32:GDI32.dll
 0001:0002e268       _CreateDIBSection@24       1002f268 f   gdi32:GDI32.dll
 0001:0002e26e       _CreateEnhMetaFileW@16     1002f26e f   gdi32:GDI32.dll
 0001:0002e274       _GetDeviceCaps@8           1002f274 f   gdi32:GDI32.dll
 0001:0002e27a       _RegCloseKey@4             1002f27a f   advapi32:ADVAPI32.dll
 0001:0002e280       _RegQueryValueExW@24       1002f280 f   advapi32:ADVAPI32.dll
 0001:0002e286       _RegOpenKeyExW@20          1002f286 f   advapi32:ADVAPI32.dll
 0001:0002e28c       _RegCreateKeyExW@36        1002f28c f   advapi32:ADVAPI32.dll
 0001:0002e292       _FreeSid@4                 1002f292 f   advapi32:ADVAPI32.dll
 0001:0002e298       _CheckTokenMembership@12   1002f298 f   advapi32:ADVAPI32.dll
 0001:0002e29e       _AllocateAndInitializeSid@44 1002f29e f   advapi32:ADVAPI32.dll
 0001:0002e2a4       _ConvertSidToStringSidW@8  1002f2a4 f   advapi32:ADVAPI32.dll
 0001:0002e2aa       _GetTokenInformation@20    1002f2aa f   advapi32:ADVAPI32.dll
 0001:0002e2b0       _OpenProcessToken@12       1002f2b0 f   advapi32:ADVAPI32.dll
 0001:0002e2b6       _RegEnumKeyExW@32          1002f2b6 f   advapi32:ADVAPI32.dll
 0001:0002e2bc       _SHAppBarMessage@8         1002f2bc f   shell32:SHELL32.dll
 0001:0002e2c2       _VerQueryValueW@16         1002f2c2 f   version:VERSION.dll
 0001:0002e2c8       _GetFileVersionInfoW@16    1002f2c8 f   version:VERSION.dll
 0001:0002e2ce       _GetFileVersionInfoSizeW@8 1002f2ce f   version:VERSION.dll
 0001:0002e2d4       _wcslen                    1002f2d4 f   LIBCMT:wcslen.obj
 0001:0002e2ee       _wcspbrk                   1002f2ee f   LIBCMT:wcspbrk.obj
 0001:0002e340       _memmove                   1002f340 f   LIBCMT:memmove.obj
 0001:0002e6a5       _wcsrchr                   1002f6a5 f   LIBCMT:wcsrchr.obj
 0001:0002e6d1       _wcschr                    1002f6d1 f   LIBCMT:wcschr.obj
 0001:0002e6f7       _wcsncmp                   1002f6f7 f   LIBCMT:wcsncmp.obj
 0001:0002e730       _strrchr                   1002f730 f   LIBCMT:strrchr.obj
 0001:0002e75d       _wcsstr                    1002f75d f   LIBCMT:wcsstr.obj
 0001:0002e7c0       _memset                    1002f7c0 f   LIBCMT:memset.obj
 0001:0002e840       __chkstk                   1002f840 f   LIBCMT:chkstk.obj
 0001:0002e840       __alloca_probe             1002f840     LIBCMT:chkstk.obj
 0001:0002e870       __aullshr                  1002f870 f   LIBCMT:ullshr.obj
 0001:0002e890       __ftol2_sse                1002f890 f   LIBCMT:ftol2.obj
 0001:0002e899       __ftol2_pentium4           1002f899 f   LIBCMT:ftol2.obj
 0001:0002e8ac       __ftol2_sse_excpt          1002f8ac f   LIBCMT:ftol2.obj
 0001:0002e8c6       __ftol2                    1002f8c6 f   LIBCMT:ftol2.obj
 0001:0002e93b       __purecall                 1002f93b f   LIBCMT:purevirt.obj
 0001:0002e965       __set_purecall_handler     1002f965 f   LIBCMT:purevirt.obj
 0001:0002e98c       __get_purecall_handler     1002f98c f   LIBCMT:purevirt.obj
 0001:0002e9a0       _memcpy                    1002f9a0 f   LIBCMT:memcpy.obj
 0001:0003027b       _memcmp                    1003127b f   LIBCMT:memcmp.obj
 0001:000318fb       ??0_LocaleUpdate@@QAE@PAUlocaleinfo_struct@@@Z 100328fb f i LIBCMT:wcstol.obj
 0001:00031982       ??1_LocaleUpdate@@QAE@XZ   10032982 f i LIBCMT:wcstol.obj
 0001:00031990       ?GetLocaleT@_LocaleUpdate@@QAEPAUlocaleinfo_struct@@XZ 10032990 f i LIBCMT:wcstol.obj
 0001:00031b8d       _wcstol                    10032b8d f   LIBCMT:wcstol.obj
 0001:00031bb8       __wcstol_l                 10032bb8 f   LIBCMT:wcstol.obj
 0001:00031bd5       _wcstoul                   10032bd5 f   LIBCMT:wcstol.obj
 0001:00031c01       __wcstoul_l                10032c01 f   LIBCMT:wcstol.obj
 0001:00031cd8       ___onexitinit              10032cd8 f   LIBCMT:onexit.obj
 0001:00031d09       __onexit                   10032d09 f   LIBCMT:onexit.obj
 0001:00031d45       _atexit                    10032d45 f   LIBCMT:onexit.obj
 0001:00031d60       _strlen                    10032d60 f   LIBCMT:strlen.obj
 0001:00031e00       _strchr                    10032e00 f   LIBCMT:strchr.obj
 0001:00031e06       ___from_strstr_to_strchr   10032e06     LIBCMT:strchr.obj
 0001:00031ec8       __except_handler3          10032ec8 f   LIBCMT:exsup3.obj
 0001:00031fc6       __seh_longjmp_unwind@4     10032fc6 f   LIBCMT:exsup3.obj
 0001:00031fe1       __CRT_INIT@12              10032fe1 f   LIBCMT:dllcrt0.obj
 0001:0003220c       __DllMainCRTStartup@12     1003320c f   LIBCMT:dllcrt0.obj
 0001:000322b6       __VEC_memcpy               100332b6 f   LIBCMT:p4_memcpy.obj
 0001:000323e9       __get_sse2_info            100333e9 f   LIBCMT:cpu_disp.obj
 0001:0003244b       ___sse2_available_init     1003344b f   LIBCMT:cpu_disp.obj
 0001:000324af       __VEC_memzero              100334af f   LIBCMT:p4_memset.obj
 0001:0003253e       _abort                     1003353e f   LIBCMT:abort.obj
 0001:00032655       __set_abort_behavior       10033655 f   LIBCMT:abort.obj
 0001:00032676       __invoke_watson_if_error   10033676 f i LIBCMT:crt0msg.obj
 0001:0003269a       __NMSG_WRITE               1003369a f   LIBCMT:crt0msg.obj
 0001:00032845       __GET_RTERRMSG             10033845 f   LIBCMT:crt0msg.obj
 0001:0003286b       __FF_MSGBANNER             1003386b f   LIBCMT:crt0msg.obj
 0001:000328a4       __crt_wait_module_handle   100338a4 f i LIBCMT:tidtable.obj
 0001:000328be       __encode_pointer           100338be f   LIBCMT:tidtable.obj
 0001:00032930       __encoded_null             10033930 f   LIBCMT:tidtable.obj
 0001:00032939       __decode_pointer           10033939 f   LIBCMT:tidtable.obj
 0001:000329ab       ___crtTlsAlloc@4           100339ab f   LIBCMT:tidtable.obj
 0001:000329b4       ___fls_getvalue@4          100339b4 f   LIBCMT:tidtable.obj
 0001:000329ce       ___get_flsindex            100339ce f   LIBCMT:tidtable.obj
 0001:000329d4       ___set_flsgetvalue         100339d4 f   LIBCMT:tidtable.obj
 0001:00032a08       ___fls_setvalue@8          10033a08 f   LIBCMT:tidtable.obj
 0001:00032a25       __mtterm                   10033a25 f   LIBCMT:tidtable.obj
 0001:00032a62       __initptd                  10033a62 f   LIBCMT:tidtable.obj
 0001:00032b49       __getptd_noexit            10033b49 f   LIBCMT:tidtable.obj
 0001:00032bc2       __getptd                   10033bc2 f   LIBCMT:tidtable.obj
 0001:00032bdc       __freefls@4                10033bdc f   LIBCMT:tidtable.obj
 0001:00032d0b       __freeptd                  10033d0b f   LIBCMT:tidtable.obj
 0001:00032d79       ___threadid                10033d79 f   LIBCMT:tidtable.obj
 0001:00032d7f       ___threadhandle            10033d7f f   LIBCMT:tidtable.obj
 0001:00032d85       __mtinit                   10033d85 f   LIBCMT:tidtable.obj
 0001:00032f12       ___getlocaleinfo           10033f12 f   LIBCMT:inithelp.obj
 0001:00033091       __initp_misc_purevirt      10034091 f   LIBCMT:inithelp.obj
 0001:000332c6       ___updatetmbcinfo          100342c6 f   LIBCMT:mbctype.obj
 0001:000333e6       __setmbcp_nolock           100343e6 f   LIBCMT:mbctype.obj
 0001:000335cb       __getmbcp                  100345cb f   LIBCMT:mbctype.obj
 0001:00033609       __setmbcp                  10034609 f   LIBCMT:mbctype.obj
 0001:000337a3       ___initmbctable            100347a3 f   LIBCMT:mbctype.obj
 0001:000337c1       ____setlc_active_func      100347c1 f   LIBCMT:setlocal.obj
 0001:000337c7       ____unguarded_readlc_active_add_func 100347c7 f   LIBCMT:setlocal.obj
 0001:000337cd       ___freetlocinfo            100347cd f   LIBCMT:setlocal.obj
 0001:00033916       ___addlocaleref            10034916 f   LIBCMT:setlocal.obj
 0001:000339a5       ___removelocaleref         100349a5 f   LIBCMT:setlocal.obj
 0001:00033aa2       ___updatetlocinfo          10034aa2 f   LIBCMT:setlocal.obj
 0001:00033b18       __configthreadlocale       10034b18 f   LIBCMT:setlocal.obj
 0001:00033bd5       __free_locale              10034bd5 f   LIBCMT:setlocal.obj
 0001:00033c97       ___free_locale             10034c97 f   LIBCMT:setlocal.obj
 0001:00033ca2       __get_current_locale       10034ca2 f   LIBCMT:setlocal.obj
 0001:00033d51       ___get_current_locale      10034d51 f   LIBCMT:setlocal.obj
 0001:00033d56       ___init_dummy              10034d56 f   LIBCMT:setlocal.obj
 0001:00033d59       __strcats                  10034d59 f   LIBCMT:setlocal.obj
 0001:00033d99       ___lc_strtolc              10034d99 f   LIBCMT:setlocal.obj
 0001:00033ec2       ___lc_lctostr              10034ec2 f   LIBCMT:setlocal.obj
 0001:000340ac       __expandlocale             100350ac f   LIBCMT:setlocal.obj
 0001:000347fa       __create_locale            100357fa f   LIBCMT:setlocal.obj
 0001:000348ef       ___create_locale           100358ef f   LIBCMT:setlocal.obj
 0001:000348fa       _setlocale                 100358fa f   LIBCMT:setlocal.obj
 0001:00034a6a       __wchartodigit             10035a6a f   LIBCMT:wchtodig.obj
 0001:00034c45       __iswctype_l               10035c45 f   LIBCMT:iswctype.obj
 0001:00034ccf       _iswctype                  10035ccf f   LIBCMT:iswctype.obj
 0001:00034d45       _is_wctype                 10035d45 f   LIBCMT:iswctype.obj
 0001:00034d50       __initp_misc_invarg        10035d50 f   LIBCMT:invarg.obj
 0001:00034d5f       __invoke_watson            10035d5f f   LIBCMT:invarg.obj
 0001:00034e87       __set_invalid_parameter_handler 10035e87 f   LIBCMT:invarg.obj
 0001:00034eae       __get_invalid_parameter_handler 10035eae f   LIBCMT:invarg.obj
 0001:00034ebb       ?_invoke_watson@@YAXPBG00II@Z 10035ebb f   LIBCMT:invarg.obj
 0001:00034ec6       __invalid_parameter        10035ec6 f   LIBCMT:invarg.obj
 0001:00034eec       __invalid_parameter_noinfo 10035eec f   LIBCMT:invarg.obj
 0001:00034efc       ?_invalid_parameter@@YAXPBG00II@Z 10035efc f   LIBCMT:invarg.obj
 0001:00034f07       __get_errno_from_oserr     10035f07 f   LIBCMT:dosmap.obj
 0001:00034f49       __errno                    10035f49 f   LIBCMT:dosmap.obj
 0001:00034f5c       ___doserrno                10035f5c f   LIBCMT:dosmap.obj
 0001:00034f6f       __dosmaperr                10035f6f f   LIBCMT:dosmap.obj
 0001:00034f92       __set_errno                10035f92 f   LIBCMT:dosmap.obj
 0001:00034fb3       __get_errno                10035fb3 f   LIBCMT:dosmap.obj
 0001:00034fe2       __set_doserrno             10035fe2 f   LIBCMT:dosmap.obj
 0001:00035003       __get_doserrno             10036003 f   LIBCMT:dosmap.obj
 0001:00035032       _wait_a_bit                10036032 f i LIBCMT:crtheap.obj
 0001:00035058       __set_malloc_crt_max_wait  10036058 f   LIBCMT:crtheap.obj
 0001:0003506d       __malloc_crt               1003606d f   LIBCMT:crtheap.obj
 0001:000350b2       __calloc_crt               100360b2 f   LIBCMT:crtheap.obj
 0001:000350fe       __realloc_crt              100360fe f   LIBCMT:crtheap.obj
 0001:0003514c       __recalloc_crt             1003614c f   LIBCMT:crtheap.obj
 0001:0003519e       __msize                    1003619e f   LIBCMT:msize.obj
 0001:00035241       __crt_waiting_on_module_handle 10036241 f   LIBCMT:crt0dat.obj
 0001:00035271       __amsg_exit                10036271 f   LIBCMT:crt0dat.obj
 0001:0003529a       ___crtCorExitProcess       1003629a f   LIBCMT:crt0dat.obj
 0001:000352c5       ___crtExitProcess          100362c5 f   LIBCMT:crt0dat.obj
 0001:000352dd       __lockexit                 100362dd f   LIBCMT:crt0dat.obj
 0001:000352e6       __unlockexit               100362e6 f   LIBCMT:crt0dat.obj
 0001:0003530c       __initterm_e               1003630c f   LIBCMT:crt0dat.obj
 0001:00035330       __get_wpgmptr              10036330 f   LIBCMT:crt0dat.obj
 0001:0003536c       __get_pgmptr               1003636c f   LIBCMT:crt0dat.obj
 0001:000353a8       __cinit                    100363a8 f   LIBCMT:crt0dat.obj
 0001:00035559       _exit                      10036559 f   LIBCMT:crt0dat.obj
 0001:0003556f       __exit                     1003656f f   LIBCMT:crt0dat.obj
 0001:00035585       __cexit                    10036585 f   LIBCMT:crt0dat.obj
 0001:00035594       __c_exit                   10036594 f   LIBCMT:crt0dat.obj
 0001:000355a3       __init_pointers            100365a3 f   LIBCMT:crt0dat.obj
 0001:000355f4       __SEH_prolog4              100365f4 f   LIBCMT:sehprolg4.obj
 0001:00035639       __SEH_epilog4              10036639 f   LIBCMT:sehprolg4.obj
 0001:00035680       __except_handler4          10036680 f   LIBCMT:chandler4.obj
 0001:0003580c       _CallDestructExceptionObject 1003680c f   LIBCMT:calldtor.obj
 0001:00035844       __global_unwind2           10036844 f   LIBCMT:exsup.obj
 0001:000358a9       __local_unwind2            100368a9 f   LIBCMT:exsup.obj
 0001:0003592d       __abnormal_termination     1003692d f   LIBCMT:exsup.obj
 0001:00035950       __NLG_Notify1              10036950 f   LIBCMT:exsup.obj
 0001:00035959       __NLG_Notify               10036959 f   LIBCMT:exsup.obj
 0001:00035970       __NLG_Dispatch2            10036970     LIBCMT:exsup.obj
 0001:00035970       __NLG_Dispatch             10036970     LIBCMT:exsup.obj
 0001:00035978       __NLG_Call                 10036978 f   LIBCMT:exsup.obj
 0001:0003597a       __NLG_Return2              1003697a     LIBCMT:exsup.obj
 0001:00035a40       __ValidateEH3RN            10036a40 f   LIBCMT:eh3valid.obj
 0001:00035d89       _free                      10036d89 f   LIBCMT:free.obj
 0001:00035e17       __ioinit                   10036e17 f   LIBCMT:ioinit.obj
 0001:0003606b       __ioterm                   1003706b f   LIBCMT:ioinit.obj
 0001:000360b9       __setenvp                  100370b9 f   LIBCMT:stdenvp.obj
 0001:00036197       __set_pgmptr               10037197 f i LIBCMT:stdargv.obj
 0001:00036340       __setargv                  10037340 f   LIBCMT:stdargv.obj
 0001:000363fb       ___crtGetEnvironmentStringsA 100373fb f   LIBCMT:a_env.obj
 0001:00036532       __RTC_Initialize           10037532 f   LIBCMT:_initsect_.obj
 0001:00036558       __RTC_Terminate            10037558 f   LIBCMT:_initsect_.obj
 0001:0003657e       ___heap_select             1003757e f   LIBCMT:heapinit.obj
 0001:00036582       __heap_init                10037582 f   LIBCMT:heapinit.obj
 0001:000365b2       __heap_term                100375b2 f   LIBCMT:heapinit.obj
 0001:00036626       __get_heap_handle          10037626 f   LIBCMT:heapinit.obj
 0001:0003662c       __initp_misc_winxfltr      1003762c f   LIBCMT:winxfltr.obj
 0001:00036662       __XcptFilter               10037662 f   LIBCMT:winxfltr.obj
 0001:000367c2       ___CppXcptFilter           100377c2 f   LIBCMT:winxfltr.obj
 0001:000367e2       ___security_init_cookie    100377e2 f   LIBCMT:gs_support.obj
 0001:00036878       __initp_misc_winsig        10037878 f   LIBCMT:winsig.obj
 0001:00036968       ___get_sigabrt             10037968 f   LIBCMT:winsig.obj
 0001:00036975       ___fpecode                 10037975 f   LIBCMT:winsig.obj
 0001:0003697e       ___pxcptinfoptrs           1003797e f   LIBCMT:winsig.obj
 0001:00036987       _signal                    10037987 f   LIBCMT:winsig.obj
 0001:00036bc4       _raise                     10037bc4 f   LIBCMT:winsig.obj
 0001:00036d74       @__security_check_cookie@4 10037d74 f   LIBCMT:secchk.obj
 0001:00036d83       ___crtMessageBoxA          10037d83 f   LIBCMT:crtmbox.obj
 0001:00036eec       _strcat_s                  10037eec f   LIBCMT:strcat_s.obj
 0001:00036f60       _strncpy_s                 10037f60 f   LIBCMT:strncpy_s.obj
 0001:00037015       _strcpy_s                  10038015 f   LIBCMT:strcpy_s.obj
 0001:0003707d       __set_error_mode           1003807d f   LIBCMT:errmode.obj
 0001:000370c8       ___set_app_type            100380c8 f   LIBCMT:errmode.obj
 0001:000370d7       ___get_app_type            100380d7 f   LIBCMT:errmode.obj
 0001:000370dd       __mtinitlocks              100380dd f   LIBCMT:mlock.obj
 0001:00037128       __mtdeletelocks            10038128 f   LIBCMT:mlock.obj
 0001:0003717f       __unlock                   1003817f f   LIBCMT:mlock.obj
 0001:00037196       __lockerr_exit             10038196 f   LIBCMT:mlock.obj
 0001:000371ae       __mtinitlocknum            100381ae f   LIBCMT:mlock.obj
 0001:00037271       __lock                     10038271 f   LIBCMT:mlock.obj
 0001:000372a4       __isalpha_l                100382a4 f i LIBCMT:_ctype.obj
 0001:000372fa       _isalpha                   100382fa f i LIBCMT:_ctype.obj
 0001:0003732a       __isupper_l                1003832a f i LIBCMT:_ctype.obj
 0001:0003737b       _isupper                   1003837b f i LIBCMT:_ctype.obj
 0001:000373a9       __islower_l                100383a9 f i LIBCMT:_ctype.obj
 0001:000373fa       _islower                   100383fa f i LIBCMT:_ctype.obj
 0001:00037428       __isdigit_l                10038428 f i LIBCMT:_ctype.obj
 0001:00037479       _isdigit                   10038479 f i LIBCMT:_ctype.obj
 0001:000374a7       __isxdigit_l               100384a7 f i LIBCMT:_ctype.obj
 0001:000374fd       _isxdigit                  100384fd f i LIBCMT:_ctype.obj
 0001:0003752d       __isspace_l                1003852d f i LIBCMT:_ctype.obj
 0001:0003757e       _isspace                   1003857e f i LIBCMT:_ctype.obj
 0001:000375ac       __ispunct_l                100385ac f i LIBCMT:_ctype.obj
 0001:000375fd       _ispunct                   100385fd f i LIBCMT:_ctype.obj
 0001:0003762b       __isalnum_l                1003862b f i LIBCMT:_ctype.obj
 0001:00037681       _isalnum                   10038681 f i LIBCMT:_ctype.obj
 0001:000376b1       __isprint_l                100386b1 f i LIBCMT:_ctype.obj
 0001:00037707       _isprint                   10038707 f i LIBCMT:_ctype.obj
 0001:00037737       __isgraph_l                10038737 f i LIBCMT:_ctype.obj
 0001:0003778d       _isgraph                   1003878d f i LIBCMT:_ctype.obj
 0001:000377bd       __iscntrl_l                100387bd f i LIBCMT:_ctype.obj
 0001:0003780e       _iscntrl                   1003880e f i LIBCMT:_ctype.obj
 0001:0003783c       ___isascii                 1003883c f i LIBCMT:_ctype.obj
 0001:0003784e       ___toascii                 1003884e f i LIBCMT:_ctype.obj
 0001:0003785b       __iscsymf_l                1003885b f i LIBCMT:_ctype.obj
 0001:0003787e       ___iscsymf                 1003887e f i LIBCMT:_ctype.obj
 0001:0003789d       __iscsym_l                 1003889d f i LIBCMT:_ctype.obj
 0001:000378c0       ___iscsym                  100388c0 f i LIBCMT:_ctype.obj
 0001:000378fa       ___crtGetLocaleInfoW       100388fa f   LIBCMT:w_loc.obj
 0001:0003792e       __MarkAllocaS              1003892e f i LIBCMT:a_loc.obj
 0001:00037944       __freea                    10038944 f i LIBCMT:a_loc.obj
 0001:00037aa3       ___crtGetLocaleInfoA       10038aa3 f   LIBCMT:a_loc.obj
 0001:00037ea3       ___crtLCMapStringA         10038ea3 f   LIBCMT:a_map.obj
 0001:000380a2       ___crtGetStringTypeA       100390a2 f   LIBCMT:a_str.obj
 0001:000380e4       ___pwctype_func            100390e4 f   LIBCMT:ctype.obj
 0001:000380ea       ___pctype_func             100390ea f   LIBCMT:ctype.obj
 0001:0003852e       ___free_lc_time            1003952e f   LIBCMT:inittime.obj
 0001:000386c3       ___init_time               100396c3 f   LIBCMT:inittime.obj
 0001:0003876f       ___free_lconv_num          1003976f f   LIBCMT:initnum.obj
 0001:000387b4       ___init_numeric            100397b4 f   LIBCMT:initnum.obj
 0001:000389b1       ___free_lconv_mon          100399b1 f   LIBCMT:initmon.obj
 0001:00038a3f       ___init_monetary           10039a3f f   LIBCMT:initmon.obj
 0001:00038d05       ___init_ctype              10039d05 f   LIBCMT:initctyp.obj
 0001:000390a7       ____mb_cur_max_func        1003a0a7 f   LIBCMT:initctyp.obj
 0001:000390d0       ____mb_cur_max_l_func      1003a0d0 f   LIBCMT:initctyp.obj
 0001:000390ec       ____lc_codepage_func       1003a0ec f   LIBCMT:initctyp.obj
 0001:00039112       ____lc_collate_cp_func     1003a112 f   LIBCMT:initctyp.obj
 0001:00039138       ____lc_handle_func         1003a138 f   LIBCMT:initctyp.obj
 0001:0003915e       ___init_collate            1003a15e f   LIBCMT:initcoll.obj
 0001:00039161       __Getdays_l                1003a161 f   LIBCMT:strftime.obj
 0001:00039261       __Getdays                  1003a261 f   LIBCMT:strftime.obj
 0001:0003926a       __Getmonths_l              1003a26a f   LIBCMT:strftime.obj
 0001:0003936a       __Getmonths                1003a36a f   LIBCMT:strftime.obj
 0001:00039373       __Gettnames_l              1003a373 f   LIBCMT:strftime.obj
 0001:000396ca       __Gettnames                1003a6ca f   LIBCMT:strftime.obj
 0001:00039fed       __Strftime_l               1003afed f   LIBCMT:strftime.obj
 0001:0003a191       __strftime_l               1003b191 f   LIBCMT:strftime.obj
 0001:0003a1b1       _strftime                  1003b1b1 f   LIBCMT:strftime.obj
 0001:0003a1d0       __Strftime                 1003b1d0 f   LIBCMT:strftime.obj
 0001:0003a1f0       _localeconv                1003b1f0 f   LIBCMT:lconv.obj
 0001:0003a220       _strcspn                   1003b220 f   LIBCMT:strcspn.obj
 0001:0003a270       _strcmp                    1003b270 f   LIBCMT:strcmp.obj
 0001:0003a8f3       ___get_qualified_locale    1003b8f3 f   LIBCMT:getqloc.obj
 0001:0003aae4       _strncmp                   1003bae4 f   LIBCMT:strncmp.obj
 0001:0003abb0       _strpbrk                   1003bbb0 f   LIBCMT:strpbrk.obj
 0001:0003ac13       ___crtGetStringTypeW       1003bc13 f   LIBCMT:w_str.obj
 0001:0003ac51       __crt_debugger_hook        1003bc51 f   LIBCMT:dbghook.obj
 0001:0003ac59       _V6_HeapAlloc              1003bc59 f   LIBCMT:malloc.obj
 0001:0003aca8       __heap_alloc               1003bca8 f i LIBCMT:malloc.obj
 0001:0003ad22       _malloc                    1003bd22 f   LIBCMT:malloc.obj
 0001:0003adec       __calloc_impl              1003bdec f   LIBCMT:calloc_impl.obj
 0001:0003af0a       _realloc                   1003bf0a f   LIBCMT:realloc.obj
 0001:0003b125       __recalloc                 1003c125 f   LIBCMT:recalloc.obj
 0001:0003b1a0       __get_sbh_threshold        1003c1a0 f   LIBCMT:sbheap.obj
 0001:0003b1c1       __set_amblksiz             1003c1c1 f   LIBCMT:sbheap.obj
 0001:0003b20c       __get_amblksiz             1003c20c f   LIBCMT:sbheap.obj
 0001:0003b24d       ___sbh_heap_init           1003c24d f   LIBCMT:sbheap.obj
 0001:0003b29b       ___sbh_find_block          1003c29b f   LIBCMT:sbheap.obj
 0001:0003b2cb       ___sbh_free_block          1003c2cb f   LIBCMT:sbheap.obj
 0001:0003b5e1       ___sbh_alloc_new_region    1003c5e1 f   LIBCMT:sbheap.obj
 0001:0003b691       ___sbh_alloc_new_group     1003c691 f   LIBCMT:sbheap.obj
 0001:0003b799       ___sbh_resize_block        1003c799 f   LIBCMT:sbheap.obj
 0001:0003ba7a       ___sbh_heapmin             1003ca7a f   LIBCMT:sbheap.obj
 0001:0003bb47       ___sbh_heap_check          1003cb47 f   LIBCMT:sbheap.obj
 0001:0003be2b       __set_sbh_threshold        1003ce2b f   LIBCMT:sbheap.obj
 0001:0003beda       ___sbh_alloc_block         1003ceda f   LIBCMT:sbheap.obj
 0001:0003c1bf       __initp_misc_cfltcvt_tab   1003d1bf f   LIBCMT:cmiscdat.obj
 0001:0003c1e0       __ValidateImageBase        1003d1e0 f   LIBCMT:pesect.obj
 0001:0003c220       __FindPESection            1003d220 f   LIBCMT:pesect.obj
 0001:0003c270       __IsNonwritableInCurrentImage 1003d270 f   LIBCMT:pesect.obj
 0001:0003c32d       ?terminate@@YAXXZ          1003d32d f   LIBCMT:hooks.obj
 0001:0003c366       ?unexpected@@YAXXZ         1003d366 f   LIBCMT:hooks.obj
 0001:0003c379       ?_inconsistency@@YAXXZ     1003d379 f   LIBCMT:hooks.obj
 0001:0003c3b1       __initp_eh_hooks           1003d3b1 f   LIBCMT:hooks.obj
 0001:0003c3c2       __initp_misc_rand_s        1003d3c2 f   LIBCMT:rand_s.obj
 0001:0003c3d1       _rand_s                    1003d3d1 f   LIBCMT:rand_s.obj
 0001:0003c4d9       __initp_misc_initcrit      1003d4d9 f   LIBCMT:initcrit.obj
 0001:0003c4e8       ___crtInitCritSecAndSpinCount 1003d4e8 f   LIBCMT:initcrit.obj
 0001:0003c548       __initp_heap_handler       1003d548 f   LIBCMT:handler.obj
 0001:0003c557       ?_set_new_handler@@YAP6AHI@ZP6AHI@Z@Z 1003d557 f   LIBCMT:handler.obj
 0001:0003c58d       ?_set_new_handler@@YAP6AHI@ZH@Z 1003d58d f   LIBCMT:handler.obj
 0001:0003c596       ?_query_new_handler@@YAP6AHI@ZXZ 1003d596 f   LIBCMT:handler.obj
 0001:0003c5a3       __callnewh                 1003d5a3 f   LIBCMT:handler.obj
 0001:0003c5cc       __local_unwind4            1003d5cc f   LIBCMT:exsup4.obj
 0001:0003c6a2       __seh_longjmp_unwind4@4    1003d6a2 f   LIBCMT:exsup4.obj
 0001:0003c6be       @_EH4_CallFilterFunc@8     1003d6be f   LIBCMT:exsup4.obj
 0001:0003c6d5       @_EH4_TransferToHandler@8  1003d6d5 f   LIBCMT:exsup4.obj
 0001:0003c6ee       @_EH4_GlobalUnwind@4       1003d6ee f   LIBCMT:exsup4.obj
 0001:0003c708       @_EH4_LocalUnwind@16       1003d708 f   LIBCMT:exsup4.obj
 0001:0003c772       __ismbbkalnum_l            1003d772 f   LIBCMT:ismbbyte.obj
 0001:0003c78b       __ismbbkalnum              1003d78b f   LIBCMT:ismbbyte.obj
 0001:0003c7a3       __ismbbkprint_l            1003d7a3 f   LIBCMT:ismbbyte.obj
 0001:0003c7bc       __ismbbkprint              1003d7bc f   LIBCMT:ismbbyte.obj
 0001:0003c7d4       __ismbbkpunct_l            1003d7d4 f   LIBCMT:ismbbyte.obj
 0001:0003c7ed       __ismbbkpunct              1003d7ed f   LIBCMT:ismbbyte.obj
 0001:0003c805       __ismbbalnum_l             1003d805 f   LIBCMT:ismbbyte.obj
 0001:0003c821       __ismbbalnum               1003d821 f   LIBCMT:ismbbyte.obj
 0001:0003c83c       __ismbbalpha_l             1003d83c f   LIBCMT:ismbbyte.obj
 0001:0003c858       __ismbbalpha               1003d858 f   LIBCMT:ismbbyte.obj
 0001:0003c873       __ismbbgraph_l             1003d873 f   LIBCMT:ismbbyte.obj
 0001:0003c88f       __ismbbgraph               1003d88f f   LIBCMT:ismbbyte.obj
 0001:0003c8aa       __ismbbprint_l             1003d8aa f   LIBCMT:ismbbyte.obj
 0001:0003c8c6       __ismbbprint               1003d8c6 f   LIBCMT:ismbbyte.obj
 0001:0003c8e1       __ismbbpunct_l             1003d8e1 f   LIBCMT:ismbbyte.obj
 0001:0003c8fa       __ismbbpunct               1003d8fa f   LIBCMT:ismbbyte.obj
 0001:0003c912       __ismbblead_l              1003d912 f   LIBCMT:ismbbyte.obj
 0001:0003c92b       __ismbblead                1003d92b f   LIBCMT:ismbbyte.obj
 0001:0003c943       __ismbbtrail_l             1003d943 f   LIBCMT:ismbbyte.obj
 0001:0003c95c       __ismbbtrail               1003d95c f   LIBCMT:ismbbyte.obj
 0001:0003c974       __ismbbkana_l              1003d974 f   LIBCMT:ismbbyte.obj
 0001:0003c9c9       __ismbbkana                1003d9c9 f   LIBCMT:ismbbyte.obj
 0001:0003c9dc       ___report_gsfailure        1003d9dc f   LIBCMT:gs_report.obj
 0001:0003cae2       __isctype_l                1003dae2 f   LIBCMT:isctype.obj
 0001:0003cb9a       __isctype                  1003db9a f   LIBCMT:isctype.obj
 0001:0003cbd0       __alloca_probe_16          1003dbd0 f   LIBCMT:alloca16.obj
 0001:0003cbe6       __alloca_probe_8           1003dbe6     LIBCMT:alloca16.obj
 0001:0003cbfc       ___ansicp                  1003dbfc f   LIBCMT:convrtcp.obj
 0001:0003cc45       ___convertcp               1003dc45 f   LIBCMT:convrtcp.obj
 0001:0003cdf9       __get_daylight             1003ddf9 f   LIBCMT:timeset.obj
 0001:0003ce32       __get_dstbias              1003de32 f   LIBCMT:timeset.obj
 0001:0003ce6b       __get_timezone             1003de6b f   LIBCMT:timeset.obj
 0001:0003cea4       __get_tzname               1003dea4 f   LIBCMT:timeset.obj
 0001:0003cf48       ___daylight                1003df48 f   LIBCMT:timeset.obj
 0001:0003cf4e       ___dstbias                 1003df4e f   LIBCMT:timeset.obj
 0001:0003cf54       ___timezone                1003df54 f   LIBCMT:timeset.obj
 0001:0003cf5a       ___tzname                  1003df5a f   LIBCMT:timeset.obj
 0001:0003cf60       __set_daylight             1003df60 f i LIBCMT:tzset.obj
 0001:0003cf71       __set_dstbias              1003df71 f i LIBCMT:tzset.obj
 0001:0003cf82       __set_timezone             1003df82 f i LIBCMT:tzset.obj
 0001:0003d6a8       ___tzset                   1003e6a8 f   LIBCMT:tzset.obj
 0001:0003d6f7       __tzset                    1003e6f7 f   LIBCMT:tzset.obj
 0001:0003d72f       __isindst                  1003e72f f   LIBCMT:tzset.obj
 0001:0003d770       ___ascii_stricmp           1003e770 f   LIBCMT:stricmp.obj
 0001:0003d7a9       __stricmp_l                1003e7a9 f   LIBCMT:stricmp.obj
 0001:0003d87e       __stricmp                  1003e87e f   LIBCMT:stricmp.obj
 0001:0003d8d0       __isleadbyte_l             1003e8d0 f i LIBCMT:_wctype.obj
 0001:0003d908       _isleadbyte                1003e908 f i LIBCMT:_wctype.obj
 0001:0003d91b       __iswalpha_l               1003e91b f i LIBCMT:_wctype.obj
 0001:0003d935       _iswalpha                  1003e935 f i LIBCMT:_wctype.obj
 0001:0003d94b       __iswupper_l               1003e94b f i LIBCMT:_wctype.obj
 0001:0003d962       _iswupper                  1003e962 f i LIBCMT:_wctype.obj
 0001:0003d975       __iswlower_l               1003e975 f i LIBCMT:_wctype.obj
 0001:0003d98c       _iswlower                  1003e98c f i LIBCMT:_wctype.obj
 0001:0003d99f       __iswdigit_l               1003e99f f i LIBCMT:_wctype.obj
 0001:0003d9b6       _iswdigit                  1003e9b6 f i LIBCMT:_wctype.obj
 0001:0003d9c9       __iswxdigit_l              1003e9c9 f i LIBCMT:_wctype.obj
 0001:0003d9e3       _iswxdigit                 1003e9e3 f i LIBCMT:_wctype.obj
 0001:0003d9f9       __iswspace_l               1003e9f9 f i LIBCMT:_wctype.obj
 0001:0003da10       _iswspace                  1003ea10 f i LIBCMT:_wctype.obj
 0001:0003da23       __iswpunct_l               1003ea23 f i LIBCMT:_wctype.obj
 0001:0003da3a       _iswpunct                  1003ea3a f i LIBCMT:_wctype.obj
 0001:0003da4d       __iswalnum_l               1003ea4d f i LIBCMT:_wctype.obj
 0001:0003da67       _iswalnum                  1003ea67 f i LIBCMT:_wctype.obj
 0001:0003da7d       __iswprint_l               1003ea7d f i LIBCMT:_wctype.obj
 0001:0003da97       _iswprint                  1003ea97 f i LIBCMT:_wctype.obj
 0001:0003daad       __iswgraph_l               1003eaad f i LIBCMT:_wctype.obj
 0001:0003dac7       _iswgraph                  1003eac7 f i LIBCMT:_wctype.obj
 0001:0003dadd       __iswcntrl_l               1003eadd f i LIBCMT:_wctype.obj
 0001:0003daf4       _iswcntrl                  1003eaf4 f i LIBCMT:_wctype.obj
 0001:0003db07       _iswascii                  1003eb07 f i LIBCMT:_wctype.obj
 0001:0003db1b       __iswcsym_l                1003eb1b f i LIBCMT:_wctype.obj
 0001:0003db45       ___iswcsym                 1003eb45 f i LIBCMT:_wctype.obj
 0001:0003db6b       __iswcsymf_l               1003eb6b f i LIBCMT:_wctype.obj
 0001:0003db95       ___iswcsymf                1003eb95 f i LIBCMT:_wctype.obj
 0001:0003dbbb       _atol                      1003ebbb f   LIBCMT:atox.obj
 0001:0003dbd1       __atol_l                   1003ebd1 f   LIBCMT:atox.obj
 0001:0003dbea       _atoi                      1003ebea f   LIBCMT:atox.obj
 0001:0003dbf5       __atoi_l                   1003ebf5 f   LIBCMT:atox.obj
 0001:0003dc00       __atoi64                   1003ec00 f   LIBCMT:atox.obj
 0001:0003dc16       __atoi64_l                 1003ec16 f   LIBCMT:atox.obj
 0001:0003dc2f       __strnicmp_l               1003ec2f f   LIBCMT:strnicmp.obj
 0001:0003dd21       __strnicmp                 1003ed21 f   LIBCMT:strnicmp.obj
 0001:0003de5c       __itoa_s                   1003ee5c f   LIBCMT:xtoas.obj
 0001:0003de86       __ltoa_s                   1003ee86 f   LIBCMT:xtoas.obj
 0001:0003dead       __ultoa_s                  1003eead f   LIBCMT:xtoas.obj
 0001:0003dfbf       __i64toa_s                 1003efbf f   LIBCMT:xtoas.obj
 0001:0003dff4       __ui64toa_s                1003eff4 f   LIBCMT:xtoas.obj
 0001:0003e013       __fptrap                   1003f013 f   LIBCMT:crt0fp.obj
 0001:0003e01c       __getenv_helper_nolock     1003f01c f   LIBCMT:getenv.obj
 0001:0003e1dc       _getenv                    1003f1dc f   LIBCMT:getenv.obj
 0001:0003e25f       _getenv_s                  1003f25f f   LIBCMT:getenv.obj
 0001:0003e337       __dupenv_s                 1003f337 f   LIBCMT:getenv.obj
 0001:0003e41d       __tolower                  1003f41d f   LIBCMT:tolower.obj
 0001:0003e42a       __tolower_l                1003f42a f   LIBCMT:tolower.obj
 0001:0003e53f       _tolower                   1003f53f f   LIBCMT:tolower.obj
 0001:0003e79a       _strtol                    1003f79a f   LIBCMT:strtol.obj
 0001:0003e7c5       __strtol_l                 1003f7c5 f   LIBCMT:strtol.obj
 0001:0003e7e2       _strtoul                   1003f7e2 f   LIBCMT:strtol.obj
 0001:0003e80e       __strtoul_l                1003f80e f   LIBCMT:strtol.obj
 0001:0003eac2       __strtoi64                 1003fac2 f   LIBCMT:strtoq.obj
 0001:0003eaed       __strtoi64_l               1003faed f   LIBCMT:strtoq.obj
 0001:0003eb0a       __strtoui64                1003fb0a f   LIBCMT:strtoq.obj
 0001:0003eb36       __strtoui64_l              1003fb36 f   LIBCMT:strtoq.obj
 0001:0003eb60       ___ascii_strnicmp          1003fb60 f   LIBCMT:_strnicm.obj
 0001:0003ebd0       __aulldvrm                 1003fbd0 f   LIBCMT:ulldvrm.obj
 0001:0003ec65       __mbsnbicoll_l             1003fc65 f   LIBCMT:mbsnbico.obj
 0001:0003ed53       __mbsnbicoll               1003fd53 f   LIBCMT:mbsnbico.obj
 0001:0003ed6d       ___wtomb_environ           1003fd6d f   LIBCMT:wtombenv.obj
 0001:0003ee04       _calloc                    1003fe04 f   LIBCMT:calloc.obj
 0001:0003ee44       _strnlen                   1003fe44 f   LIBCMT:strlen_s.obj
 0001:0003ee70       __allmul                   1003fe70 f   LIBCMT:llmul.obj
 0001:0003f232       ___crtCompareStringA       10040232 f   LIBCMT:a_cmp.obj
 0001:0003f274       __strnicoll_l              10040274 f   LIBCMT:strnicol.obj
 0001:0003f36e       __strnicoll                1004036e f   LIBCMT:strnicol.obj
 0001:0003f443       ___crtsetenv               10040443 f   LIBCMT:setenv.obj
 0001:0003f68e       __strdup                   1004068e f   LIBCMT:strdup.obj
 0001:0003f6e3       __mbschr_l                 100406e3 f   LIBCMT:mbschr.obj
 0001:0003f79f       __mbschr                   1004079f f   LIBCMT:mbschr.obj
 0001:0003f7b6       _GetCommandLineA@0         100407b6 f   kernel32:KERNEL32.dll
 0001:0003f7bc       _UnhandledExceptionFilter@4 100407bc f   kernel32:KERNEL32.dll
 0001:0003f7c2       _SetUnhandledExceptionFilter@4 100407c2 f   kernel32:KERNEL32.dll
 0001:0003f7c8       _GetModuleFileNameA@12     100407c8 f   kernel32:KERNEL32.dll
 0001:0003f7ce       _TlsGetValue@4             100407ce f   kernel32:KERNEL32.dll
 0001:0003f7d4       _TlsAlloc@0                100407d4 f   kernel32:KERNEL32.dll
 0001:0003f7da       _TlsSetValue@8             100407da f   kernel32:KERNEL32.dll
 0001:0003f7e0       _TlsFree@4                 100407e0 f   kernel32:KERNEL32.dll
 0001:0003f7e6       _GetCurrentThread@0        100407e6 f   kernel32:KERNEL32.dll
 0001:0003f7ec       _GetCPInfo@8               100407ec f   kernel32:KERNEL32.dll
 0001:0003f7f2       _GetACP@0                  100407f2 f   kernel32:KERNEL32.dll
 0001:0003f7f8       _GetOEMCP@0                100407f8 f   kernel32:KERNEL32.dll
 0001:0003f7fe       _IsValidCodePage@4         100407fe f   kernel32:KERNEL32.dll
 0001:0003f804       _HeapSize@12               10040804 f   kernel32:KERNEL32.dll
 0001:0003f80a       _ExitProcess@4             1004080a f   kernel32:KERNEL32.dll
 0001:0003f810       _RtlUnwind@16              10040810 f   kernel32:KERNEL32.dll
 0001:0003f816       _VirtualQuery@12           10040816 f   kernel32:KERNEL32.dll
 0001:0003f81c       _SetHandleCount@4          1004081c f   kernel32:KERNEL32.dll
 0001:0003f822       _GetFileType@4             10040822 f   kernel32:KERNEL32.dll
 0001:0003f828       _GetStartupInfoA@4         10040828 f   kernel32:KERNEL32.dll
 0001:0003f82e       _FreeEnvironmentStringsA@4 1004082e f   kernel32:KERNEL32.dll
 0001:0003f834       _GetEnvironmentStrings@0   10040834 f   kernel32:KERNEL32.dll
 0001:0003f83a       _QueryPerformanceCounter@4 1004083a f   kernel32:KERNEL32.dll
 0001:0003f840       _GetSystemTimeAsFileTime@4 10040840 f   kernel32:KERNEL32.dll
 0001:0003f846       _SetConsoleCtrlHandler@8   10040846 f   kernel32:KERNEL32.dll
 0001:0003f84c       _LoadLibraryA@4            1004084c f   kernel32:KERNEL32.dll
 0001:0003f852       _FatalAppExitA@8           10040852 f   kernel32:KERNEL32.dll
 0001:0003f858       _GetLocaleInfoW@16         10040858 f   kernel32:KERNEL32.dll
 0001:0003f85e       _GetLocaleInfoA@16         1004085e f   kernel32:KERNEL32.dll
 0001:0003f864       _LCMapStringA@24           10040864 f   kernel32:KERNEL32.dll
 0001:0003f86a       _LCMapStringW@24           1004086a f   kernel32:KERNEL32.dll
 0001:0003f870       _GetStringTypeA@20         10040870 f   kernel32:KERNEL32.dll
 0001:0003f876       _GetStringTypeW@16         10040876 f   kernel32:KERNEL32.dll
 0001:0003f87c       _GetTimeFormatA@24         1004087c f   kernel32:KERNEL32.dll
 0001:0003f882       _GetDateFormatA@24         10040882 f   kernel32:KERNEL32.dll
 0001:0003f888       _GetUserDefaultLCID@0      10040888 f   kernel32:KERNEL32.dll
 0001:0003f88e       _EnumSystemLocalesA@8      1004088e f   kernel32:KERNEL32.dll
 0001:0003f894       _IsValidLocale@8           10040894 f   kernel32:KERNEL32.dll
 0001:0003f89a       _InterlockedExchange@8     1004089a f   kernel32:KERNEL32.dll
 0001:0003f8a0       _InitializeCriticalSectionAndSpinCount@8 100408a0 f   kernel32:KERNEL32.dll
 0001:0003f8a6       _GetTimeZoneInformation@4  100408a6 f   kernel32:KERNEL32.dll
 0001:0003f8ac       _CompareStringA@24         100408ac f   kernel32:KERNEL32.dll
 0001:0003f8b2       _CompareStringW@24         100408b2 f   kernel32:KERNEL32.dll
 0001:0003f8b8       _SetEnvironmentVariableA@8 100408b8 f   kernel32:KERNEL32.dll
 0002:00000000       __imp__OpenProcessToken@12 10041000     advapi32:ADVAPI32.dll
 0002:00000004       __imp__GetTokenInformation@20 10041004     advapi32:ADVAPI32.dll
 0002:00000008       __imp__ConvertSidToStringSidW@8 10041008     advapi32:ADVAPI32.dll
 0002:0000000c       __imp__AllocateAndInitializeSid@44 1004100c     advapi32:ADVAPI32.dll
 0002:00000010       __imp__CheckTokenMembership@12 10041010     advapi32:ADVAPI32.dll
 0002:00000014       __imp__FreeSid@4           10041014     advapi32:ADVAPI32.dll
 0002:00000018       __imp__RegCreateKeyExW@36  10041018     advapi32:ADVAPI32.dll
 0002:0000001c       __imp__RegOpenKeyExW@20    1004101c     advapi32:ADVAPI32.dll
 0002:00000020       __imp__RegQueryValueExW@24 10041020     advapi32:ADVAPI32.dll
 0002:00000024       __imp__RegCloseKey@4       10041024     advapi32:ADVAPI32.dll
 0002:00000028       __imp__RegEnumKeyExW@32    10041028     advapi32:ADVAPI32.dll
 0002:0000002c       \177ADVAPI32_NULL_THUNK_DATA 1004102c     advapi32:ADVAPI32.dll
 0002:00000030       __imp__CreateEnhMetaFileW@16 10041030     gdi32:GDI32.dll
 0002:00000034       __imp__CreateDIBSection@24 10041034     gdi32:GDI32.dll
 0002:00000038       __imp__CreateSolidBrush@4  10041038     gdi32:GDI32.dll
 0002:0000003c       __imp__GdiFlush@0          1004103c     gdi32:GDI32.dll
 0002:00000040       __imp__CloseEnhMetaFile@4  10041040     gdi32:GDI32.dll
 0002:00000044       __imp__GetEnhMetaFileBits@12 10041044     gdi32:GDI32.dll
 0002:00000048       __imp__DeleteEnhMetaFile@4 10041048     gdi32:GDI32.dll
 0002:0000004c       __imp__CreateFontIndirectW@4 1004104c     gdi32:GDI32.dll
 0002:00000050       __imp__CreateCompatibleDC@4 10041050     gdi32:GDI32.dll
 0002:00000054       __imp__SelectObject@8      10041054     gdi32:GDI32.dll
 0002:00000058       __imp__GetTextMetricsW@8   10041058     gdi32:GDI32.dll
 0002:0000005c       __imp__DeleteDC@4          1004105c     gdi32:GDI32.dll
 0002:00000060       __imp__DeleteObject@4      10041060     gdi32:GDI32.dll
 0002:00000064       __imp__GetDeviceCaps@8     10041064     gdi32:GDI32.dll
 0002:00000068       \177GDI32_NULL_THUNK_DATA  10041068     gdi32:GDI32.dll
 0002:0000006c       __imp__OpenFileMappingW@12 1004106c     kernel32:KERNEL32.dll
 0002:00000070       __imp__CreateFileMappingW@24 10041070     kernel32:KERNEL32.dll
 0002:00000074       __imp__LoadLibraryW@4      10041074     kernel32:KERNEL32.dll
 0002:00000078       __imp__VirtualProtect@16   10041078     kernel32:KERNEL32.dll
 0002:0000007c       __imp__lstrcpyW@8          1004107c     kernel32:KERNEL32.dll
 0002:00000080       __imp__MultiByteToWideChar@24 10041080     kernel32:KERNEL32.dll
 0002:00000084       __imp__lstrcpynA@12        10041084     kernel32:KERNEL32.dll
 0002:00000088       __imp__lstrlenA@4          10041088     kernel32:KERNEL32.dll
 0002:0000008c       __imp__WideCharToMultiByte@32 1004108c     kernel32:KERNEL32.dll
 0002:00000090       __imp__lstrcpyA@8          10041090     kernel32:KERNEL32.dll
 0002:00000094       __imp__Module32NextW@8     10041094     kernel32:KERNEL32.dll
 0002:00000098       __imp__Module32FirstW@8    10041098     kernel32:KERNEL32.dll
 0002:0000009c       __imp__CreateToolhelp32Snapshot@8 1004109c     kernel32:KERNEL32.dll
 0002:000000a0       __imp__GetConsoleCursorInfo@8 100410a0     kernel32:KERNEL32.dll
 0002:000000a4       __imp__GetConsoleScreenBufferInfo@8 100410a4     kernel32:KERNEL32.dll
 0002:000000a8       __imp__GetStdHandle@4      100410a8     kernel32:KERNEL32.dll
 0002:000000ac       __imp__InterlockedIncrement@4 100410ac     kernel32:KERNEL32.dll
 0002:000000b0       __imp__GetConsoleTitleW@8  100410b0     kernel32:KERNEL32.dll
 0002:000000b4       __imp__DeleteFileW@4       100410b4     kernel32:KERNEL32.dll
 0002:000000b8       __imp__Thread32Next@8      100410b8     kernel32:KERNEL32.dll
 0002:000000bc       __imp__Thread32First@8     100410bc     kernel32:KERNEL32.dll
 0002:000000c0       __imp__GetConsoleMode@8    100410c0     kernel32:KERNEL32.dll
 0002:000000c4       __imp__GetExitCodeProcess@8 100410c4     kernel32:KERNEL32.dll
 0002:000000c8       __imp__CreateProcessW@40   100410c8     kernel32:KERNEL32.dll
 0002:000000cc       __imp__SetConsoleMode@8    100410cc     kernel32:KERNEL32.dll
 0002:000000d0       __imp__GetEnvironmentStringsW@0 100410d0     kernel32:KERNEL32.dll
 0002:000000d4       __imp__lstrcatW@8          100410d4     kernel32:KERNEL32.dll
 0002:000000d8       __imp__GetEnvironmentVariableW@12 100410d8     kernel32:KERNEL32.dll
 0002:000000dc       __imp__WaitForMultipleObjects@16 100410dc     kernel32:KERNEL32.dll
 0002:000000e0       __imp__CreateEventW@16     100410e0     kernel32:KERNEL32.dll
 0002:000000e4       __imp__SetConsoleTitleW@4  100410e4     kernel32:KERNEL32.dll
 0002:000000e8       __imp__CreateSemaphoreW@16 100410e8     kernel32:KERNEL32.dll
 0002:000000ec       __imp__ResetEvent@4        100410ec     kernel32:KERNEL32.dll
 0002:000000f0       __imp__TerminateProcess@8  100410f0     kernel32:KERNEL32.dll
 0002:000000f4       __imp__GetCurrentProcess@0 100410f4     kernel32:KERNEL32.dll
 0002:000000f8       __imp__SetEvent@4          100410f8     kernel32:KERNEL32.dll
 0002:000000fc       __imp__IsBadStringPtrW@8   100410fc     kernel32:KERNEL32.dll
 0002:00000100       __imp__InterlockedDecrement@4 10041100     kernel32:KERNEL32.dll
 0002:00000104       __imp__ReleaseSemaphore@12 10041104     kernel32:KERNEL32.dll
 0002:00000108       __imp__WriteConsoleInputW@16 10041108     kernel32:KERNEL32.dll
 0002:0000010c       __imp__GetNumberOfConsoleInputEvents@8 1004110c     kernel32:KERNEL32.dll
 0002:00000110       __imp__ReadConsoleInputW@16 10041110     kernel32:KERNEL32.dll
 0002:00000114       __imp__PeekConsoleInputW@16 10041114     kernel32:KERNEL32.dll
 0002:00000118       __imp__SuspendThread@4     10041118     kernel32:KERNEL32.dll
 0002:0000011c       __imp__ResumeThread@4      1004111c     kernel32:KERNEL32.dll
 0002:00000120       __imp__VerifyVersionInfoW@16 10041120     kernel32:KERNEL32.dll
 0002:00000124       __imp__VerSetConditionMask@16 10041124     kernel32:KERNEL32.dll
 0002:00000128       __imp__ReleaseMutex@4      10041128     kernel32:KERNEL32.dll
 0002:0000012c       __imp__CreateMutexW@12     1004112c     kernel32:KERNEL32.dll
 0002:00000130       __imp__SetFilePointer@16   10041130     kernel32:KERNEL32.dll
 0002:00000134       __imp__GetFileInformationByHandle@8 10041134     kernel32:KERNEL32.dll
 0002:00000138       __imp__ReadProcessMemory@20 10041138     kernel32:KERNEL32.dll
 0002:0000013c       __imp__FreeLibrary@4       1004113c     kernel32:KERNEL32.dll
 0002:00000140       __imp__ExpandEnvironmentStringsW@12 10041140     kernel32:KERNEL32.dll
 0002:00000144       __imp__SearchPathW@24      10041144     kernel32:KERNEL32.dll
 0002:00000148       __imp__DebugBreak@0        10041148     kernel32:KERNEL32.dll
 0002:0000014c       __imp__HeapCreate@12       1004114c     kernel32:KERNEL32.dll
 0002:00000150       __imp__HeapDestroy@4       10041150     kernel32:KERNEL32.dll
 0002:00000154       __imp__HeapAlloc@12        10041154     kernel32:KERNEL32.dll
 0002:00000158       __imp__HeapReAlloc@16      10041158     kernel32:KERNEL32.dll
 0002:0000015c       __imp__HeapFree@12         1004115c     kernel32:KERNEL32.dll
 0002:00000160       __imp__GetStartupInfoW@4   10041160     kernel32:KERNEL32.dll
 0002:00000164       __imp__Process32NextW@8    10041164     kernel32:KERNEL32.dll
 0002:00000168       __imp__Process32FirstW@8   10041168     kernel32:KERNEL32.dll
 0002:0000016c       __imp__OpenThread@12       1004116c     kernel32:KERNEL32.dll
 0002:00000170       __imp__InitializeCriticalSection@4 10041170     kernel32:KERNEL32.dll
 0002:00000174       __imp__DeleteCriticalSection@4 10041174     kernel32:KERNEL32.dll
 0002:00000178       __imp__EnterCriticalSection@4 10041178     kernel32:KERNEL32.dll
 0002:0000017c       __imp__LeaveCriticalSection@4 1004117c     kernel32:KERNEL32.dll
 0002:00000180       __imp__TryEnterCriticalSection@4 10041180     kernel32:KERNEL32.dll
 0002:00000184       __imp__LocalFree@4         10041184     kernel32:KERNEL32.dll
 0002:00000188       __imp__LocalAlloc@8        10041188     kernel32:KERNEL32.dll
 0002:0000018c       __imp__lstrcmpiA@8         1004118c     kernel32:KERNEL32.dll
 0002:00000190       __imp__MapViewOfFile@20    10041190     kernel32:KERNEL32.dll
 0002:00000194       __imp__DisconnectNamedPipe@4 10041194     kernel32:KERNEL32.dll
 0002:00000198       __imp__SetThreadPriority@8 10041198     kernel32:KERNEL32.dll
 0002:0000019c       __imp__FlushFileBuffers@4  1004119c     kernel32:KERNEL32.dll
 0002:000001a0       __imp__GetOverlappedResult@16 100411a0     kernel32:KERNEL32.dll
 0002:000001a4       __imp__ConnectNamedPipe@8  100411a4     kernel32:KERNEL32.dll
 0002:000001a8       __imp__CreateNamedPipeW@32 100411a8     kernel32:KERNEL32.dll
 0002:000001ac       __imp__FreeEnvironmentStringsW@4 100411ac     kernel32:KERNEL32.dll
 0002:000001b0       __imp__SetConsoleWindowInfo@12 100411b0     kernel32:KERNEL32.dll
 0002:000001b4       __imp__GetConsoleOutputCP@0 100411b4     kernel32:KERNEL32.dll
 0002:000001b8       __imp__GetLargestConsoleWindowSize@4 100411b8     kernel32:KERNEL32.dll
 0002:000001bc       __imp__SetConsoleTextAttribute@8 100411bc     kernel32:KERNEL32.dll
 0002:000001c0       __imp__FindClose@4         100411c0     kernel32:KERNEL32.dll
 0002:000001c4       __imp__FindFirstFileW@8    100411c4     kernel32:KERNEL32.dll
 0002:000001c8       __imp__GetFileSize@8       100411c8     kernel32:KERNEL32.dll
 0002:000001cc       __imp__FindNextFileW@8     100411cc     kernel32:KERNEL32.dll
 0002:000001d0       __imp__CreateDirectoryW@8  100411d0     kernel32:KERNEL32.dll
 0002:000001d4       __imp__GetFileSizeEx@8     100411d4     kernel32:KERNEL32.dll
 0002:000001d8       __imp__GetPrivateProfileIntW@16 100411d8     kernel32:KERNEL32.dll
 0002:000001dc       __imp__WritePrivateProfileStringW@16 100411dc     kernel32:KERNEL32.dll
 0002:000001e0       __imp__IsBadReadPtr@8      100411e0     kernel32:KERNEL32.dll
 0002:000001e4       __imp__VirtualFree@12      100411e4     kernel32:KERNEL32.dll
 0002:000001e8       __imp__VirtualAlloc@16     100411e8     kernel32:KERNEL32.dll
 0002:000001ec       __imp__GetSystemInfo@4     100411ec     kernel32:KERNEL32.dll
 0002:000001f0       __imp__GetFullPathNameW@16 100411f0     kernel32:KERNEL32.dll
 0002:000001f4       __imp__GetVersionExW@4     100411f4     kernel32:KERNEL32.dll
 0002:000001f8       __imp__GetWindowsDirectoryW@8 100411f8     kernel32:KERNEL32.dll
 0002:000001fc       __imp__CreateThread@24     100411fc     kernel32:KERNEL32.dll
 0002:00000200       __imp__TerminateThread@8   10041200     kernel32:KERNEL32.dll
 0002:00000204       __imp__RaiseException@16   10041204     kernel32:KERNEL32.dll
 0002:00000208       __imp__DuplicateHandle@28  10041208     kernel32:KERNEL32.dll
 0002:0000020c       __imp__OpenProcess@12      1004120c     kernel32:KERNEL32.dll
 0002:00000210       __imp__CompareStringW@24   10041210     kernel32:KERNEL32.dll
 0002:00000214       __imp__CompareStringA@24   10041214     kernel32:KERNEL32.dll
 0002:00000218       __imp__GetTimeZoneInformation@4 10041218     kernel32:KERNEL32.dll
 0002:0000021c       __imp__InitializeCriticalSectionAndSpinCount@8 1004121c     kernel32:KERNEL32.dll
 0002:00000220       __imp__InterlockedExchange@8 10041220     kernel32:KERNEL32.dll
 0002:00000224       __imp__IsValidLocale@8     10041224     kernel32:KERNEL32.dll
 0002:00000228       __imp__EnumSystemLocalesA@8 10041228     kernel32:KERNEL32.dll
 0002:0000022c       __imp__GetUserDefaultLCID@0 1004122c     kernel32:KERNEL32.dll
 0002:00000230       __imp__GetDateFormatA@24   10041230     kernel32:KERNEL32.dll
 0002:00000234       __imp__GetTimeFormatA@24   10041234     kernel32:KERNEL32.dll
 0002:00000238       __imp__GetStringTypeW@16   10041238     kernel32:KERNEL32.dll
 0002:0000023c       __imp__GetStringTypeA@20   1004123c     kernel32:KERNEL32.dll
 0002:00000240       __imp__LCMapStringW@24     10041240     kernel32:KERNEL32.dll
 0002:00000244       __imp__LCMapStringA@24     10041244     kernel32:KERNEL32.dll
 0002:00000248       __imp__GetLocaleInfoA@16   10041248     kernel32:KERNEL32.dll
 0002:0000024c       __imp__GetLocaleInfoW@16   1004124c     kernel32:KERNEL32.dll
 0002:00000250       __imp__FatalAppExitA@8     10041250     kernel32:KERNEL32.dll
 0002:00000254       __imp__LoadLibraryA@4      10041254     kernel32:KERNEL32.dll
 0002:00000258       __imp__SetConsoleCtrlHandler@8 10041258     kernel32:KERNEL32.dll
 0002:0000025c       __imp__GetSystemTimeAsFileTime@4 1004125c     kernel32:KERNEL32.dll
 0002:00000260       __imp__QueryPerformanceCounter@4 10041260     kernel32:KERNEL32.dll
 0002:00000264       __imp__GetEnvironmentStrings@0 10041264     kernel32:KERNEL32.dll
 0002:00000268       __imp__FreeEnvironmentStringsA@4 10041268     kernel32:KERNEL32.dll
 0002:0000026c       __imp__GetStartupInfoA@4   1004126c     kernel32:KERNEL32.dll
 0002:00000270       __imp__GetFileType@4       10041270     kernel32:KERNEL32.dll
 0002:00000274       __imp__SetHandleCount@4    10041274     kernel32:KERNEL32.dll
 0002:00000278       __imp__VirtualQuery@12     10041278     kernel32:KERNEL32.dll
 0002:0000027c       __imp__RtlUnwind@16        1004127c     kernel32:KERNEL32.dll
 0002:00000280       __imp__ExitProcess@4       10041280     kernel32:KERNEL32.dll
 0002:00000284       __imp__HeapSize@12         10041284     kernel32:KERNEL32.dll
 0002:00000288       __imp__IsValidCodePage@4   10041288     kernel32:KERNEL32.dll
 0002:0000028c       __imp__GetOEMCP@0          1004128c     kernel32:KERNEL32.dll
 0002:00000290       __imp__GetACP@0            10041290     kernel32:KERNEL32.dll
 0002:00000294       __imp__GetCPInfo@8         10041294     kernel32:KERNEL32.dll
 0002:00000298       __imp__GetCurrentThread@0  10041298     kernel32:KERNEL32.dll
 0002:0000029c       __imp__TlsFree@4           1004129c     kernel32:KERNEL32.dll
 0002:000002a0       __imp__TlsSetValue@8       100412a0     kernel32:KERNEL32.dll
 0002:000002a4       __imp__TlsAlloc@0          100412a4     kernel32:KERNEL32.dll
 0002:000002a8       __imp__TlsGetValue@4       100412a8     kernel32:KERNEL32.dll
 0002:000002ac       __imp__GetModuleFileNameA@12 100412ac     kernel32:KERNEL32.dll
 0002:000002b0       __imp__SetUnhandledExceptionFilter@4 100412b0     kernel32:KERNEL32.dll
 0002:000002b4       __imp__UnhandledExceptionFilter@4 100412b4     kernel32:KERNEL32.dll
 0002:000002b8       __imp__UnmapViewOfFile@4   100412b8     kernel32:KERNEL32.dll
 0002:000002bc       __imp__GetConsoleWindow@0  100412bc     kernel32:KERNEL32.dll
 0002:000002c0       __imp__WriteFile@20        100412c0     kernel32:KERNEL32.dll
 0002:000002c4       __imp__TransactNamedPipe@28 100412c4     kernel32:KERNEL32.dll
 0002:000002c8       __imp__CloseHandle@4       100412c8     kernel32:KERNEL32.dll
 0002:000002cc       __imp__ReadFile@20         100412cc     kernel32:KERNEL32.dll
 0002:000002d0       __imp__GetCurrentThreadId@0 100412d0     kernel32:KERNEL32.dll
 0002:000002d4       __imp__IsDebuggerPresent@0 100412d4     kernel32:KERNEL32.dll
 0002:000002d8       __imp__GetTickCount@0      100412d8     kernel32:KERNEL32.dll
 0002:000002dc       __imp__CreateFileW@28      100412dc     kernel32:KERNEL32.dll
 0002:000002e0       __imp__GetLastError@0      100412e0     kernel32:KERNEL32.dll
 0002:000002e4       __imp__WaitForSingleObject@8 100412e4     kernel32:KERNEL32.dll
 0002:000002e8       __imp__WaitNamedPipeW@8    100412e8     kernel32:KERNEL32.dll
 0002:000002ec       __imp__Sleep@4             100412ec     kernel32:KERNEL32.dll
 0002:000002f0       __imp__SetLastError@4      100412f0     kernel32:KERNEL32.dll
 0002:000002f4       __imp__GetCurrentProcessId@0 100412f4     kernel32:KERNEL32.dll
 0002:000002f8       __imp__SetNamedPipeHandleState@16 100412f8     kernel32:KERNEL32.dll
 0002:000002fc       __imp__GetModuleFileNameW@12 100412fc     kernel32:KERNEL32.dll
 0002:00000300       __imp__GetModuleHandleW@4  10041300     kernel32:KERNEL32.dll
 0002:00000304       __imp__GetProcAddress@8    10041304     kernel32:KERNEL32.dll
 0002:00000308       __imp__GetCurrentDirectoryW@8 10041308     kernel32:KERNEL32.dll
 0002:0000030c       __imp__lstrcpynW@12        1004130c     kernel32:KERNEL32.dll
 0002:00000310       __imp__lstrlenW@4          10041310     kernel32:KERNEL32.dll
 0002:00000314       __imp__lstrcmpW@8          10041314     kernel32:KERNEL32.dll
 0002:00000318       __imp__lstrcmpiW@8         10041318     kernel32:KERNEL32.dll
 0002:0000031c       __imp__GetExitCodeThread@8 1004131c     kernel32:KERNEL32.dll
 0002:00000320       __imp__SetEnvironmentVariableW@8 10041320     kernel32:KERNEL32.dll
 0002:00000324       __imp__GetCommandLineA@0   10041324     kernel32:KERNEL32.dll
 0002:00000328       __imp__SetEnvironmentVariableA@8 10041328     kernel32:KERNEL32.dll
 0002:0000032c       \177KERNEL32_NULL_THUNK_DATA 1004132c     kernel32:KERNEL32.dll
 0002:00000330       __imp__SHAppBarMessage@8   10041330     shell32:SHELL32.dll
 0002:00000334       \177SHELL32_NULL_THUNK_DATA 10041334     shell32:SHELL32.dll
 0002:00000338       __imp__MonitorFromPoint@12 10041338     user32:USER32.dll
 0002:0000033c       __imp__CharUpperBuffW@8    1004133c     user32:USER32.dll
 0002:00000340       __imp__MapVirtualKeyW@8    10041340     user32:USER32.dll
 0002:00000344       __imp__GetWindowTextW@12   10041344     user32:USER32.dll
 0002:00000348       __imp__ShowWindowAsync@8   10041348     user32:USER32.dll
 0002:0000034c       __imp__ShowWindow@8        1004134c     user32:USER32.dll
 0002:00000350       __imp__SetForegroundWindow@4 10041350     user32:USER32.dll
 0002:00000354       __imp__wsprintfA           10041354     user32:USER32.dll
 0002:00000358       __imp__SendMessageTimeoutW@28 10041358     user32:USER32.dll
 0002:0000035c       __imp__SendMessageW@16     1004135c     user32:USER32.dll
 0002:00000360       __imp__LoadKeyboardLayoutW@8 10041360     user32:USER32.dll
 0002:00000364       __imp__ActivateKeyboardLayout@8 10041364     user32:USER32.dll
 0002:00000368       __imp__GetDC@4             10041368     user32:USER32.dll
 0002:0000036c       __imp__ReleaseDC@8         1004136c     user32:USER32.dll
 0002:00000370       __imp__FillRect@12         10041370     user32:USER32.dll
 0002:00000374       __imp__FindWindowExW@16    10041374     user32:USER32.dll
 0002:00000378       __imp__IntersectRect@12    10041378     user32:USER32.dll
 0002:0000037c       __imp__MonitorFromRect@8   1004137c     user32:USER32.dll
 0002:00000380       __imp__SystemParametersInfoW@16 10041380     user32:USER32.dll
 0002:00000384       __imp__IsRectEmpty@4       10041384     user32:USER32.dll
 0002:00000388       __imp__VkKeyScanW@4        10041388     user32:USER32.dll
 0002:0000038c       __imp__GetCursorPos@4      1004138c     user32:USER32.dll
 0002:00000390       __imp__EnumDisplayMonitors@16 10041390     user32:USER32.dll
 0002:00000394       __imp__IsWindowEnabled@4   10041394     user32:USER32.dll
 0002:00000398       __imp__EnableWindow@8      10041398     user32:USER32.dll
 0002:0000039c       __imp__GetWindowRect@8     1004139c     user32:USER32.dll
 0002:000003a0       __imp__SetWindowPos@28     100413a0     user32:USER32.dll
 0002:000003a4       __imp__MonitorFromWindow@8 100413a4     user32:USER32.dll
 0002:000003a8       __imp__GetMonitorInfoW@8   100413a8     user32:USER32.dll
 0002:000003ac       __imp__GetSystemMetrics@4  100413ac     user32:USER32.dll
 0002:000003b0       __imp__PostMessageW@16     100413b0     user32:USER32.dll
 0002:000003b4       __imp__IsWindowVisible@4   100413b4     user32:USER32.dll
 0002:000003b8       __imp__RegisterWindowMessageW@4 100413b8     user32:USER32.dll
 0002:000003bc       __imp__GetParent@4         100413bc     user32:USER32.dll
 0002:000003c0       __imp__wsprintfW           100413c0     user32:USER32.dll
 0002:000003c4       __imp__FindWindowW@8       100413c4     user32:USER32.dll
 0002:000003c8       __imp__GetWindowThreadProcessId@8 100413c8     user32:USER32.dll
 0002:000003cc       __imp__MessageBoxW@16      100413cc     user32:USER32.dll
 0002:000003d0       __imp__GetClassNameW@12    100413d0     user32:USER32.dll
 0002:000003d4       __imp__GetWindowLongW@8    100413d4     user32:USER32.dll
 0002:000003d8       __imp__IsWindow@4          100413d8     user32:USER32.dll
 0002:000003dc       \177USER32_NULL_THUNK_DATA 100413dc     user32:USER32.dll
 0002:000003e0       __imp__GetFileVersionInfoW@16 100413e0     version:VERSION.dll
 0002:000003e4       __imp__GetFileVersionInfoSizeW@8 100413e4     version:VERSION.dll
 0002:000003e8       __imp__VerQueryValueW@16   100413e8     version:VERSION.dll
 0002:000003ec       \177VERSION_NULL_THUNK_DATA 100413ec     version:VERSION.dll
 0002:000003f0       ___xc_a                    100413f0     LIBCMT:crt0init.obj
 0002:000003fc       ___xc_z                    100413fc     LIBCMT:crt0init.obj
 0002:00000400       ___xi_a                    10041400     LIBCMT:crt0init.obj
 0002:00000410       ___xi_z                    10041410     LIBCMT:crt0init.obj
 0002:00000414       ___xp_a                    10041414     LIBCMT:crt0init.obj
 0002:00000418       ___xp_z                    10041418     LIBCMT:crt0init.obj
 0002:0000041c       ___xt_a                    1004141c     LIBCMT:crt0init.obj
 0002:00000420       ___xt_z                    10041420     LIBCMT:crt0init.obj
 0002:0000044c       ??_C@_1BC@DNPPHIOA@?$AA?2?$AA?1?$AA?$HM?$AA?4?$AA?$CG?$AA?$DM?$AA?$DO?$AA?$FO?$AA?$AA@ 1004144c     CEStr.obj
 0002:00000460       ??_C@_15GJEPFCOK@?$AA?$DN?$AA?3?$AA?$AA@ 10041460     CEStr.obj
 0002:00000468       ??_C@_19IJOJOJIB@?$AAP?$AAA?$AAT?$AAH?$AA?$AA@ 10041468     CEStr.obj
 0002:00000478       ??_C@_1EHK@JMHPNAMN@?$AAA?$AAC?$AAT?$AAI?$AAV?$AAA?$AAT?$AAE?$AA?$AA?$AAA?$AAL?$AAI?$AAA?$AAS?$AA?$AA?$AAA?$AAS?$AAS?$AAO?$AAC?$AA?$AA?$AAA?$AAT?$AAT?$AAR?$AAI?$AAB?$AA?$AA?$AAB?$AAE?$AAE?$AAP@ 10041478     CmdLine.obj
 0002:000008f4       ??_C@_13PFGJFIHC@?$AA?$FO?$AA?$AA@ 100418f4     CmdLine.obj
 0002:000008f8       ??_C@_13NEIAEHFG@?$AA?$CC?$AA?$AA@ 100418f8     CmdLine.obj
 0002:000008fc       ??_C@_15HCICFAGO@?$AA?$FO?$AA?$CC?$AA?$AA@ 100418fc     CmdLine.obj
 0002:00000904       ??_C@_1BM@DIGKKBBA@?$AAC?$AAo?$AAn?$AAE?$AAm?$AAu?$AAC?$AA6?$AA4?$AA?4?$AAe?$AAx?$AAe?$AA?$AA@ 10041904     CmdLine.obj
 0002:00000920       ??_C@_1BE@LPDGKFE@?$AAC?$AAo?$AAn?$AAE?$AAm?$AAu?$AAC?$AA6?$AA4?$AA?$AA@ 10041920     CmdLine.obj
 0002:00000934       ??_C@_1BI@OPBAAHCM@?$AAC?$AAo?$AAn?$AAE?$AAm?$AAu?$AAC?$AA?4?$AAe?$AAx?$AAe?$AA?$AA@ 10041934     CmdLine.obj
 0002:0000094c       ??_C@_1BA@OOOLGAEE@?$AAC?$AAo?$AAn?$AAE?$AAm?$AAu?$AAC?$AA?$AA@ 1004194c     CmdLine.obj
 0002:0000095c       ??_C@_1BA@DBKIDAPL@?$AAc?$AAm?$AAd?$AA?4?$AAe?$AAx?$AAe?$AA?$AA@ 1004195c     CmdLine.obj
 0002:0000096c       ??_C@_17MEJHPLBO@?$AAc?$AAm?$AAd?$AA?$AA@ 1004196c     CmdLine.obj
 0002:00000974       ??_C@_15PENCDGID@?$AA?1?$AAK?$AA?$AA@ 10041974     CmdLine.obj
 0002:0000097c       ??_C@_15DBGGBOGM@?$AA?1?$AAC?$AA?$AA@ 1004197c     CmdLine.obj
 0002:00000984       ??_C@_17GCLANFBN@?$AA?5?$AA?$CI?$AA?0?$AA?$AA@ 10041984     CmdLine.obj
 0002:0000098c       ??_C@_15DPEKPBGF@?$AA?2?$AA?$CC?$AA?$AA@ 1004198c     CmdLine.obj
 0002:00000994       ??_C@_15JNBOKNOG@?$AA?$AN?$AA?6?$AA?$AA@ 10041994     CmdLine.obj
 0002:0000099c       ??_C@_11LOCGONAA@?$AA?$AA@ 1004199c     CmdLine.obj
 0002:000009a0       ??_C@_19MJCDBCKE@?$AA?2?$AA?2?$AA?$DP?$AA?2?$AA?$AA@ 100419a0     CmdLine.obj
 0002:000009ac       ??_C@_1BC@NAEGMMKI@?$AA?2?$AA?2?$AA?$DP?$AA?2?$AAU?$AAN?$AAC?$AA?2?$AA?$AA@ 100419ac     CmdLine.obj
 0002:000009c0       ??_C@_1BA@JFHFEKBP@?$AAt?$AAc?$AAc?$AA?4?$AAe?$AAx?$AAe?$AA?$AA@ 100419c0     CmdLine.obj
 0002:000009d0       ??_C@_17BFDEJKOF@?$AAt?$AAc?$AAc?$AA?$AA@ 100419d0     CmdLine.obj
 0002:000009d8       ??_C@_19DOGDICKI@?$AA?4?$AAe?$AAx?$AAe?$AA?$AA@ 100419d8     CmdLine.obj
 0002:000009e4       ??_C@_1M@HHBDDMDH@?$AA?$DP?$AA?$CK?$AA?$DM?$AA?$DO?$AA?$HM?$AA?$AA@ 100419e4     CmdLine.obj
 0002:000009f0       ??_C@_1M@JGKKHEFC@?$AAs?$AAt?$AAa?$AAr?$AAt?$AA?$AA@ 100419f0     CmdLine.obj
 0002:000009fc       ??_C@_0BO@KOCOEJCM@Wow64RevertWow64FsRedirection?$AA@ 100419fc     CmdLine.obj
 0002:00000a1c       ??_C@_0BP@OODKCJPP@Wow64DisableWow64FsRedirection?$AA@ 10041a1c     CmdLine.obj
 0002:00000a3c       ??_C@_1BK@MGMFAEKH@?$AAk?$AAe?$AAr?$AAn?$AAe?$AAl?$AA3?$AA2?$AA?4?$AAd?$AAl?$AAl?$AA?$AA@ 10041a3c     CmdLine.obj
 0002:00000a58       ??_C@_19CDGLJBOD@?$AA?4?$AAc?$AAo?$AAm?$AA?$AA@ 10041a58     CmdLine.obj
 0002:00000a64       ??_C@_1BI@KAPIDPND@?$AAc?$AAo?$AAn?$AAh?$AAo?$AAs?$AAt?$AA?4?$AAe?$AAx?$AAe?$AA?$AA@ 10041a64     CmdLine.obj
 0002:00000a7c       ??_C@_1BE@OMGDNGEO@?$AAc?$AAs?$AAr?$AAs?$AAs?$AA?4?$AAe?$AAx?$AAe?$AA?$AA@ 10041a7c     CmdLine.obj
 0002:00000a90       ??_C@_1BK@BNOCAHHB@?$AAC?$AAo?$AAn?$AAE?$AAm?$AAu?$AA6?$AA4?$AA?4?$AAe?$AAx?$AAe?$AA?$AA@ 10041a90     CmdLine.obj
 0002:00000aac       ??_C@_1BG@PIGCKNCG@?$AAC?$AAo?$AAn?$AAE?$AAm?$AAu?$AA?4?$AAe?$AAx?$AAe?$AA?$AA@ 10041aac     CmdLine.obj
 0002:00000ac4       ??_C@_1CI@GKDINFFD@?$AAc?$AAo?$AAn?$AAe?$AAm?$AAu?$AA?9?$AAm?$AAs?$AAy?$AAs?$AA2?$AA?9?$AA6?$AA4?$AA?4?$AAe?$AAx?$AAe?$AA?$AA@ 10041ac4     CmdLine.obj
 0002:00000aec       ??_C@_1CI@BKGBONO@?$AAc?$AAo?$AAn?$AAe?$AAm?$AAu?$AA?9?$AAm?$AAs?$AAy?$AAs?$AA2?$AA?9?$AA3?$AA2?$AA?4?$AAe?$AAx?$AAe?$AA?$AA@ 10041aec     CmdLine.obj
 0002:00000b14       ??_C@_1CG@HKNDDCJA@?$AAc?$AAo?$AAn?$AAe?$AAm?$AAu?$AA?9?$AAm?$AAs?$AAy?$AAs?$AA?9?$AA3?$AA2?$AA?4?$AAe?$AAx?$AAe?$AA?$AA@ 10041b14     CmdLine.obj
 0002:00000b3c       ??_C@_1CE@FMNIHOKA@?$AAc?$AAo?$AAn?$AAe?$AAm?$AAu?$AA?9?$AAc?$AAy?$AAg?$AA?9?$AA6?$AA4?$AA?4?$AAe?$AAx?$AAe?$AA?$AA@ 10041b3c     CmdLine.obj
 0002:00000b60       ??_C@_1CE@DHEGLFCN@?$AAc?$AAo?$AAn?$AAe?$AAm?$AAu?$AA?9?$AAc?$AAy?$AAg?$AA?9?$AA3?$AA2?$AA?4?$AAe?$AAx?$AAe?$AA?$AA@ 10041b60     CmdLine.obj
 0002:00000b84       ??_C@_1BI@FELILGEI@?$AAg?$AAi?$AAt?$AA?9?$AAc?$AAm?$AAd?$AA?4?$AAe?$AAx?$AAe?$AA?$AA@ 10041b84     CmdLine.obj
 0002:00000b9c       ??_C@_1BK@LMKHKIEA@?$AAg?$AAi?$AAt?$AA?9?$AAb?$AAa?$AAs?$AAh?$AA?4?$AAe?$AAx?$AAe?$AA?$AA@ 10041b9c     CmdLine.obj
 0002:00000bb8       ??_C@_1BM@BDBEIMJM@?$AAs?$AAs?$AAh?$AA?9?$AAa?$AAg?$AAe?$AAn?$AAt?$AA?4?$AAe?$AAx?$AAe?$AA?$AA@ 10041bb8     CmdLine.obj
 0002:00000bd4       ??_C@_1BE@GNHPPGCJ@?$AAf?$AAa?$AAr?$AA6?$AA4?$AA?4?$AAe?$AAx?$AAe?$AA?$AA@ 10041bd4     CmdLine.obj
 0002:00000be8       ??_C@_1BA@ICCBDENM@?$AAf?$AAa?$AAr?$AA?4?$AAe?$AAx?$AAe?$AA?$AA@ 10041be8     CmdLine.obj
 0002:00000bf8       ??_C@_1BE@KKPGGEOO@?$AA?5?$AA?$DM?$AA?$DO?$AA?$CI?$AA?$CJ?$AA?$CG?$AA?$HM?$AA?$FO?$AA?$CC?$AA?$AA@ 10041bf8     CmdLine.obj
 0002:00000c0c       ??_C@_13HOIJIPNN@?$AA?5?$AA?$AA@ 10041c0c     CmdLine.obj
 0002:00000c10       ??_C@_15KEGLFFFP@?$AA?$CC?$AA?5?$AA?$AA@ 10041c10     CmdLine.obj
 0002:00000c18       ??_C@_13FPGAJAPJ@?$AA?2?$AA?$AA@ 10041c18     CmdLine.obj
 0002:00000c1c       ??_C@_15NGAHEDKP@?$AA?5?$AA?3?$AA?$AA@ 10041c1c     CmdLine.obj
 0002:00000c24       ??_C@_1O@PICBDAL@?$AAC?$AAo?$AAn?$AAE?$AAm?$AAu?$AA?$AA@ 10041c24     Common.obj
 0002:00000c34       ??_C@_1BA@LEPJIIOK@?$AAU?$AAn?$AAk?$AAn?$AAo?$AAw?$AAn?$AA?$AA@ 10041c34     ConEmuCheck.obj
 0002:00000c48       ??_C@_1EM@INHGIPLC@?$AA?$CF?$AAs?$AA?4?$AA?$CF?$AAu?$AA?3?$AA?5?$AAC?$AAr?$AAe?$AAa?$AAt?$AAe?$AAF?$AAi?$AAl?$AAe?$AA?$CI?$AA?$CF?$AAs?$AA?$CJ?$AA?5?$AAf?$AAa?$AAi?$AAl?$AAe?$AAd?$AA?0?$AA?5?$AAc?$AAo@ 10041c48     ConEmuCheck.obj
 0002:00000c94       ??_C@_1CO@ELKEEMPJ@?$AAC?$AAo?$AAn?$AAE?$AAm?$AAu?$AAF?$AAi?$AAl?$AAe?$AAM?$AAa?$AAp?$AAp?$AAi?$AAn?$AAg?$AA?4?$AA?$CF?$AA0?$AA8?$AAX?$AA?$AA@ 10041c94     ConEmuCheck.obj
 0002:00000cc4       ??_C@_1DA@LCPELGGN@?$AAC?$AAo?$AAn?$AAE?$AAm?$AAu?$AAG?$AAu?$AAi?$AAI?$AAn?$AAf?$AAo?$AAM?$AAa?$AAp?$AAp?$AAi?$AAn?$AAg?$AA?4?$AA?$CF?$AAu?$AA?$AA@ 10041cc4     ConEmuCheck.obj
 0002:00000cf4       ??_C@_1M@GJCOMIJN@?$AAF?$AAr?$AAL?$AAi?$AAb?$AA?$AA@ 10041cf4     ConEmuCheck.obj
 0002:00000d00       ??_C@_1M@KJKJNBFD@?$AAL?$AAd?$AAL?$AAi?$AAb?$AA?$AA@ 10041d00     ConEmuCheck.obj
 0002:00000d0c       ??_C@_1BA@OBPMCEAG@?$AAC?$AAh?$AAa?$AAn?$AAg?$AAe?$AAd?$AA?$AA@ 10041d0c     ConEmuCheck.obj
 0002:00000d1c       ??_C@_1O@EHPOJOIH@?$AAS?$AAr?$AAL?$AAo?$AAa?$AAd?$AA?$AA@ 10041d1c     ConEmuCheck.obj
 0002:00000d2c       ??_C@_1O@PPMFEOGL@?$AAH?$AAk?$AAL?$AAo?$AAa?$AAd?$AA?$AA@ 10041d2c     ConEmuCheck.obj
 0002:00000d3c       ??_C@_1O@DEDLEBMG@?$AAI?$AAn?$AAj?$AAe?$AAc?$AAt?$AA?$AA@ 10041d3c     ConEmuCheck.obj
 0002:00000d4c       ??_C@_1O@GMCJGMIO@?$AAC?$AAr?$AAe?$AAa?$AAt?$AAe?$AA?$AA@ 10041d4c     ConEmuCheck.obj
 0002:00000d5c       ??_C@_1M@JLDCNMKN@?$AAS?$AAh?$AAe?$AAl?$AAl?$AA?$AA@ 10041d5c     ConEmuCheck.obj
 0002:00000d68       ??_C@_1DC@MJLCOFMA@?$AA?2?$AA?2?$AA?$CF?$AAs?$AA?2?$AAp?$AAi?$AAp?$AAe?$AA?2?$AAC?$AAo?$AAn?$AAE?$AAm?$AAu?$AAG?$AAu?$AAi?$AA?4?$AA?$CF?$AA0?$AA8?$AAX?$AA?$AA@ 10041d68     ConEmuCheck.obj
 0002:00000d9c       ??_C@_13JOFGPIOO@?$AA?4?$AA?$AA@ 10041d9c     ConEmuCheck.obj
 0002:00000da0       ??_C@_1CM@OPJKOFLA@?$AA?2?$AA?2?$AA?$CF?$AAs?$AA?2?$AAp?$AAi?$AAp?$AAe?$AA?2?$AAC?$AAo?$AAn?$AAE?$AAm?$AAu?$AAS?$AAr?$AAv?$AA?$CF?$AAu?$AA?$AA@ 10041da0     ConEmuCheck.obj
 0002:00000dcc       ??_C@_1CK@IFINLJPE@?$AA?2?$AA?2?$AA?$CF?$AAs?$AA?2?$AAp?$AAi?$AAp?$AAe?$AA?2?$AAC?$AAo?$AAn?$AAE?$AAm?$AAu?$AAH?$AAk?$AA?$CF?$AAu?$AA?$AA@ 10041dcc     ConEmuCheck.obj
 0002:00000df8       ??_C@_1CC@LMJBOHFL@?$AAW?$AAi?$AAn?$AAe?$AAC?$AAo?$AAn?$AAs?$AAo?$AAl?$AAe?$AAC?$AAl?$AAa?$AAs?$AAs?$AA?$AA@ 10041df8     ConEmuCheck.obj
 0002:00000e1c       ??_C@_1CG@FFFCCLIF@?$AAC?$AAo?$AAn?$AAs?$AAo?$AAl?$AAe?$AAW?$AAi?$AAn?$AAd?$AAo?$AAw?$AAC?$AAl?$AAa?$AAs?$AAs?$AA?$AA@ 10041e1c     ConEmuCheck.obj
 0002:00000e48       ??_C@_1FO@BGAPBIGG@?$AAC?$AAa?$AAn?$AA?8?$AAt?$AA?5?$AAm?$AAa?$AAp?$AA?5?$AAc?$AAo?$AAn?$AAs?$AAo?$AAl?$AAe?$AA?5?$AAi?$AAn?$AAf?$AAo?$AA?5?$AA?$CI?$AA?$CF?$AAs?$AA?$CJ?$AA?4?$AA?5?$AAE?$AAr?$AAr@ 10041e48     ConEmuCheck.obj
 0002:00000ea8       ??_C@_19EOHDNDII@?$AAR?$AAe?$AAa?$AAd?$AA?$AA@ 10041ea8     ConEmuCheck.obj
 0002:00000eb4       ??_C@_1BE@HADLJAO@?$AAR?$AAe?$AAa?$AAd?$AAW?$AAr?$AAi?$AAt?$AAe?$AA?$AA@ 10041eb4     ConEmuCheck.obj
 0002:00000ec8       ??_C@_1GM@LGOLGABE@?$AAC?$AAa?$AAn?$AA?8?$AAt?$AA?5?$AA?$CF?$AAs?$AA?5?$AAc?$AAo?$AAn?$AAs?$AAo?$AAl?$AAe?$AA?5?$AAd?$AAa?$AAt?$AAa?$AA?5?$AAf?$AAi?$AAl?$AAe?$AA?5?$AAm?$AAa?$AAp?$AAp?$AAi@ 10041ec8     ConEmuCheck.obj
 0002:00000f34       ??_C@_19BDAJEHDN@?$AAo?$AAp?$AAe?$AAn?$AA?$AA@ 10041f34     ConEmuCheck.obj
 0002:00000f40       ??_C@_1O@KBENBEFG@?$AAc?$AAr?$AAe?$AAa?$AAt?$AAe?$AA?$AA@ 10041f40     ConEmuCheck.obj
 0002:00000f50       ??_C@_1GK@OGACKIKJ@?$AAI?$AAn?$AAt?$AAe?$AAr?$AAn?$AAa?$AAl?$AA?5?$AAe?$AAr?$AAr?$AAo?$AAr?$AA?4?$AA?5?$AAM?$AAa?$AAp?$AAp?$AAi?$AAn?$AAg?$AA?5?$AAf?$AAi?$AAl?$AAe?$AA?5?$AAn?$AAa?$AAm@ 10041f50     ConEmuCheck.obj
 0002:00000fbc       ??_C@_1CG@HCDHJIEM@?$AAC?$AAo?$AAn?$AAE?$AAm?$AAu?$AA?2?$AAC?$AAo?$AAn?$AAE?$AAm?$AAu?$AAC?$AA?4?$AAe?$AAx?$AAe?$AA?$AA@ 10041fbc     ConEmuCheckEx.obj
 0002:00000fe4       ??_C@_1CK@KBHIPEEC@?$AAC?$AAo?$AAn?$AAE?$AAm?$AAu?$AA?2?$AAC?$AAo?$AAn?$AAE?$AAm?$AAu?$AAC?$AA6?$AA4?$AA?4?$AAe?$AAx?$AAe?$AA?$AA@ 10041fe4     ConEmuCheckEx.obj
 0002:00001010       ??_C@_1CA@CNCOCNJD@?$AAS?$AAo?$AAf?$AAt?$AAw?$AAa?$AAr?$AAe?$AA?2?$AAC?$AAo?$AAn?$AAE?$AAm?$AAu?$AA?$AA@ 10042010     ConEmuCheckEx.obj
 0002:00001030       ??_C@_1CC@PDEDDOGK@?$AA?2?$AAP?$AAl?$AAu?$AAg?$AAi?$AAn?$AAs?$AA?2?$AAC?$AAo?$AAn?$AAE?$AAm?$AAu?$AA?2?$AA?$AA@ 10042030     ConEmuCheckEx.obj
 0002:00001054       ??_C@_1CI@PDOPFPLH@?$AAV?$AAi?$AAr?$AAt?$AAu?$AAa?$AAl?$AAC?$AAo?$AAn?$AAs?$AAo?$AAl?$AAe?$AAC?$AAl?$AAa?$AAs?$AAs?$AA?$AA@ 10042054     ConEmuCheckEx.obj
 0002:0000107c       ??_C@_0BA@LIPPODFA@ShellExecuteExW?$AA@ 1004207c     ConEmuInjects.obj
 0002:0000108c       ??_C@_1BI@BNFKGMFK@?$AAs?$AAh?$AAe?$AAl?$AAl?$AA3?$AA2?$AA?4?$AAd?$AAl?$AAl?$AA?$AA@ 1004208c     ConEmuInjects.obj
 0002:000010a4       ??_C@_0BO@HCPBIAL@GetNumberOfConsoleInputEvents?$AA@ 100420a4     ConEmuInjects.obj
 0002:000010c4       ??_C@_0BE@OGCEDBDL@WriteConsoleOutputW?$AA@ 100420c4     ConEmuInjects.obj
 0002:000010d8       ??_C@_0BE@PKLMIEOM@WriteConsoleOutputA?$AA@ 100420d8     ConEmuInjects.obj
 0002:000010ec       ??_C@_0BC@IBCKMAJE@ReadConsoleInputW?$AA@ 100420ec     ConEmuInjects.obj
 0002:00001100       ??_C@_0BC@JNLCHFED@ReadConsoleInputA?$AA@ 10042100     ConEmuInjects.obj
 0002:00001114       ??_C@_0BC@EEHCEAN@PeekConsoleInputW?$AA@ 10042114     ConEmuInjects.obj
 0002:00001128       ??_C@_0BC@BINPJBNK@PeekConsoleInputA?$AA@ 10042128     ConEmuInjects.obj
 0002:0000113c       ??_C@_0N@MOGGHBHN@AllocConsole?$AA@ 1004213c     ConEmuInjects.obj
 0002:0000114c       ??_C@_0M@LAGCIMKJ@FreeConsole?$AA@ 1004214c     ConEmuInjects.obj
 0002:00001158       ??_C@_0BE@FDMAKOMB@SetHookCallbacksExt?$AA@ 10042158     ConEmuInjects.obj
 0002:0000116c       ??_C@_1CI@BCDIBFHK@?$AAE?$AAx?$AAt?$AAe?$AAn?$AAd?$AAe?$AAd?$AAC?$AAo?$AAn?$AAs?$AAo?$AAl?$AAe?$AA?4?$AAd?$AAl?$AAl?$AA?$AA@ 1004216c     ConEmuInjects.obj
 0002:00001198       ??_C@_1FG@GKBMDCCM@?$AAC?$AAo?$AAn?$AAE?$AAm?$AAu?$AAH?$AAk?$AA?5?$AAi?$AAs?$AA?5?$AAb?$AAr?$AAo?$AAk?$AAe?$AAn?$AA?0?$AA?5?$AAe?$AAx?$AAp?$AAo?$AAr?$AAt?$AA?5?$AA?$CI?$AA?$CF?$AAs?$AA?$CJ?$AA?5@ 10042198     ConEmuInjects.obj
 0002:000011f0       ??_C@_1BO@OGOEDKED@?$AAS?$AAe?$AAt?$AAF?$AAa?$AAr?$AAH?$AAo?$AAo?$AAk?$AAM?$AAo?$AAd?$AAe?$AA?$AA@ 100421f0     ConEmuInjects.obj
 0002:00001210       ??_C@_1CO@HHOFMBDD@?$AAS?$AAe?$AAt?$AAL?$AAo?$AAa?$AAd?$AAL?$AAi?$AAb?$AAr?$AAa?$AAr?$AAy?$AAC?$AAa?$AAl?$AAl?$AAb?$AAa?$AAc?$AAk?$AA?$AA@ 10042210     ConEmuInjects.obj
 0002:00001240       ??_C@_1CC@JNEFFKJH@?$AAS?$AAe?$AAt?$AAH?$AAo?$AAo?$AAk?$AAC?$AAa?$AAl?$AAl?$AAb?$AAa?$AAc?$AAk?$AAs?$AA?$AA@ 10042240     ConEmuInjects.obj
 0002:00001264       ??_C@_1CM@DEPCLAGE@?$AAC?$AAo?$AAn?$AAE?$AAm?$AAu?$AA?5?$AAp?$AAl?$AAu?$AAg?$AAi?$AAn?$AA?0?$AA?5?$AAP?$AAI?$AAD?$AA?$DN?$AA?$CF?$AAu?$AA?$AA@ 10042264     ConEmuInjects.obj
 0002:00001290       ??_C@_0P@JOHNNMGG@SetFarHookMode?$AA@ 10042290     ConEmuInjects.obj
 0002:000012a0       ??_C@_0BH@HLKHEPME@SetLoadLibraryCallback?$AA@ 100422a0     ConEmuInjects.obj
 0002:000012b8       ??_C@_0BB@OPFPFOCM@SetHookCallbacks?$AA@ 100422b8     ConEmuInjects.obj
 0002:000012cc       ??_C@_1BM@LHLFCECN@?$AAC?$AAo?$AAn?$AAE?$AAm?$AAu?$AA?5?$AAp?$AAl?$AAu?$AAg?$AAi?$AAn?$AA?$AA@ 100422cc     ConEmuInjects.obj
 0002:000012e8       ??_C@_1IM@IDJBHJMA@?$AAC?$AAo?$AAn?$AAE?$AAm?$AAu?$AAH?$AAk?$AA?5?$AAw?$AAa?$AAs?$AA?5?$AAn?$AAo?$AAt?$AA?5?$AAl?$AAo?$AAa?$AAd?$AAe?$AAd?$AA?0?$AA?5?$AAb?$AAu?$AAt?$AA?5?$AAC?$AAo?$AAn@ 100422e8     ConEmuInjects.obj
 0002:00001374       ??_C@_1BK@FLBMCLFA@?$AAC?$AAo?$AAn?$AAE?$AAm?$AAu?$AAH?$AAk?$AA?4?$AAd?$AAl?$AAl?$AA?$AA@ 10042374     ConEmuInjects.obj
 0002:00001390       ??_C@_0BF@NLPJFAHE@ProcessSynchroEventW?$AA@ 10042390     ConEmuPlugin.obj
 0002:000013a8       ??_C@_0BE@OMPAFBFG@ProcessViewerEventW?$AA@ 100423a8     ConEmuPlugin.obj
 0002:000013bc       ??_C@_0BE@PJBDJPG@ProcessEditorEventW?$AA@ 100423bc     ConEmuPlugin.obj
 0002:000013d0       ??_C@_08BCACMCCB@ExitFARW?$AA@ 100423d0     ConEmuPlugin.obj
 0002:000013dc       ??_C@_1BO@LDDOEOAL@?$AAE?$AAx?$AAi?$AAt?$AAF?$AAA?$AAR?$AA?5?$AA?9?$AA?5?$AAd?$AAo?$AAn?$AAe?$AA?$AA@ 100423dc     ConEmuPlugin.obj
 0002:000013fc       ??_C@_1BA@JOPOJEME@?$AAE?$AAx?$AAi?$AAt?$AAF?$AAA?$AAR?$AA?$AA@ 100423fc     ConEmuPlugin.obj
 0002:0000140c       ??_C@_1CA@IFHGCKFI@?$AAE?$AAx?$AAi?$AAt?$AAF?$AAA?$AAR?$AAW?$AA?5?$AA?9?$AA?5?$AAd?$AAo?$AAn?$AAe?$AA?$AA@ 1004240c     ConEmuPlugin.obj
 0002:0000142c       ??_C@_1BC@OCOOMPC@?$AAE?$AAx?$AAi?$AAt?$AAF?$AAA?$AAR?$AAW?$AA?$AA@ 1004242c     ConEmuPlugin.obj
 0002:00001440       ??_C@_1CC@LCFMKIJA@?$AAE?$AAx?$AAi?$AAt?$AAF?$AAA?$AAR?$AAW?$AA3?$AA?5?$AA?9?$AA?5?$AAd?$AAo?$AAn?$AAe?$AA?$AA@ 10042440     ConEmuPlugin.obj
 0002:00001464       ??_C@_1BE@GNKIHEAN@?$AAE?$AAx?$AAi?$AAt?$AAF?$AAA?$AAR?$AAW?$AA3?$AA?$AA@ 10042464     ConEmuPlugin.obj
 0002:00001478       ??_7CPluginW1900@@6B@      10042478     ConEmuPlugin1900.obj
 0002:0000150c       ??_C@_1CI@OHGGDAJD@?$AAE?$AAx?$AAi?$AAt?$AAF?$AAA?$AAR?$AAW?$AA1?$AA9?$AA0?$AA0?$AA?5?$AA?9?$AA?5?$AAd?$AAo?$AAn?$AAe?$AA?$AA@ 1004250c     ConEmuPlugin1900.obj
 0002:00001534       ??_C@_1BK@BCDKFLCP@?$AAE?$AAx?$AAi?$AAt?$AAF?$AAA?$AAR?$AAW?$AA1?$AA9?$AA0?$AA0?$AA?$AA@ 10042534     ConEmuPlugin1900.obj
 0002:00001550       ??_C@_0BF@MFOIGNA@BackgroundMacroError?$AA@ 10042550     ConEmuPlugin1900.obj
 0002:00001568       ??_C@_1OK@GOJADEAC@?$AAE?$AAr?$AAr?$AAo?$AAr?$AA?5?$AAi?$AAn?$AA?5?$AAM?$AAa?$AAc?$AAr?$AAo?$AA?4?$AA?5?$AAF?$AAa?$AAr?$AA?5?$AA?$CF?$AAu?$AA?4?$AA?$CF?$AAu?$AA?5?$AAb?$AAu?$AAi?$AAl?$AAd?$AA?5@ 10042568     ConEmuPlugin1900.obj
 0002:00001658       ??_C@_1BCK@MAAKAKN@?$AAE?$AAr?$AAr?$AAo?$AAr?$AA?5?$AAi?$AAn?$AA?5?$AAM?$AAa?$AAc?$AAr?$AAo?$AA?4?$AA?5?$AAF?$AAa?$AAr?$AA?5?$AA?$CF?$AAu?$AA?4?$AA?$CF?$AAu?$AA?5?$AAb?$AAu?$AAi?$AAl?$AAd?$AA?5@ 10042658     ConEmuPlugin1900.obj
 0002:00001784       ??_C@_1BC@OLJIBFPH@?$AA?0?$AA?5?$AAH?$AAi?$AAn?$AAt?$AA?3?$AA?5?$AA?$AA@ 10042784     ConEmuPlugin1900.obj
 0002:00001798       ??_C@_19JPEEHMMI@?$AA?5?$AA?7?$AA?$AN?$AA?6?$AA?$AA@ 10042798     ConEmuPlugin1900.obj
 0002:000017a4       ??_C@_1O@BBPMHPCD@?$AAp?$AAr?$AAi?$AAn?$AAt?$AA?$CI?$AA?$AA@ 100427a4     ConEmuPlugin1900.obj
 0002:000017b4       ??_C@_1M@OKCNCBMD@?$AA$?$AAT?$AAE?$AAX?$AAT?$AA?$AA@ 100427b4     ConEmuPlugin1900.obj
 0002:000017c0       ??_C@_1BC@IALIJCAM@?$AAS?$AAo?$AAr?$AAt?$AAM?$AAo?$AAd?$AAe?$AA?$AA@ 100427c0     ConEmuPlugin1900.obj
 0002:000017d4       ??_C@_1BG@MHMKAABO@?$AAS?$AAt?$AAa?$AAt?$AAu?$AAs?$AAL?$AAi?$AAn?$AAe?$AA?$AA@ 100427d4     ConEmuPlugin1900.obj
 0002:000017ec       ??_C@_1BK@MBFACEDG@?$AAC?$AAo?$AAl?$AAu?$AAm?$AAn?$AAT?$AAi?$AAt?$AAl?$AAe?$AAs?$AA?$AA@ 100427ec     ConEmuPlugin1900.obj
 0002:00001808       ??_C@_1O@PDEOIOBG@?$AAK?$AAe?$AAy?$AAB?$AAa?$AAr?$AA?$AA@ 10042808     ConEmuPlugin1900.obj
 0002:00001818       ??_C@_1BI@EKLHEFDO@?$AAS?$AAh?$AAo?$AAw?$AAM?$AAe?$AAn?$AAu?$AAB?$AAa?$AAr?$AA?$AA@ 10042818     ConEmuPlugin1900.obj
 0002:00001830       ??_C@_1BG@LKGDBHML@?$AAW?$AAT?$AAY?$AAP?$AAE?$AA_?$AAH?$AAE?$AAL?$AAP?$AA?$AA@ 10042830     ConEmuPlugin1900.obj
 0002:00001848       ??_C@_1BI@IHGDMIGH@?$AAW?$AAT?$AAY?$AAP?$AAE?$AA_?$AAV?$AAM?$AAE?$AAN?$AAU?$AA?$AA@ 10042848     ConEmuPlugin1900.obj
 0002:00001860       ??_C@_1BK@NEJJBFEB@?$AAW?$AAT?$AAY?$AAP?$AAE?$AA_?$AAD?$AAI?$AAA?$AAL?$AAO?$AAG?$AA?$AA@ 10042860     ConEmuPlugin1900.obj
 0002:0000187c       ??_C@_1BK@MHHDIBO@?$AAW?$AAT?$AAY?$AAP?$AAE?$AA_?$AAE?$AAD?$AAI?$AAT?$AAO?$AAR?$AA?$AA@ 1004287c     ConEmuPlugin1900.obj
 0002:00001898       ??_C@_1BK@LNCDOEEM@?$AAW?$AAT?$AAY?$AAP?$AAE?$AA_?$AAV?$AAI?$AAE?$AAW?$AAE?$AAR?$AA?$AA@ 10042898     ConEmuPlugin1900.obj
 0002:000018b4       ??_C@_1BK@BKCACCAI@?$AAW?$AAT?$AAY?$AAP?$AAE?$AA_?$AAP?$AAA?$AAN?$AAE?$AAL?$AAS?$AA?$AA@ 100428b4     ConEmuPlugin1900.obj
 0002:000018d0       ??_C@_1BO@HNJMHBAE@?$AAC?$AAo?$AAn?$AAE?$AAm?$AAu?$AAG?$AAu?$AAi?$AAM?$AAa?$AAc?$AAr?$AAo?$AA?$AA@ 100428d0     ConEmuPlugin1900.obj
 0002:000018f0       ??_C@_1CE@PEOBLGJK@?$AAC?$AAo?$AAn?$AAE?$AAm?$AAu?$AAM?$AAa?$AAc?$AAr?$AAo?$AAR?$AAe?$AAs?$AAu?$AAl?$AAt?$AA?$AA@ 100428f0     ConEmuPlugin1900.obj
 0002:00001914       ??_C@_1DE@DJEAMLPH@?$AAC?$AAo?$AAn?$AAE?$AAm?$AAu?$AA?4?$AAM?$AAa?$AAx?$AAi?$AAm?$AAu?$AAs?$AA5?$AA?$EA?$AAg?$AAm?$AAa?$AAi?$AAl?$AA?4?$AAc?$AAo?$AAm?$AA?$AA@ 10042914     ConEmuPlugin2800.obj
 0002:00001948       ??_C@_1DO@JIOAOHCJ@?$AAC?$AAo?$AAn?$AAE?$AAm?$AAu?$AA?5?$AAs?$AAu?$AAp?$AAp?$AAo?$AAr?$AAt?$AA?5?$AAf?$AAo?$AAr?$AA?5?$AAF?$AAa?$AAr?$AA?5?$AAM?$AAa?$AAn?$AAa?$AAg?$AAe?$AAr?$AA?$AA@ 10042948     ConEmuPlugin2800.obj
 0002:00001988       ??_7CPluginW2800@@6B@      10042988     ConEmuPlugin2800.obj
 0002:00001a1c       ??_C@_17IOMHDNEC@?$AAf?$AAa?$AAr?$AA?$AA@ 10042a1c     ConEmuPlugin2800.obj
 0002:00001a24       ??_C@_1CI@KIFAPNHL@?$AAE?$AAx?$AAi?$AAt?$AAF?$AAA?$AAR?$AAW?$AA2?$AA8?$AA0?$AA0?$AA?5?$AA?9?$AA?5?$AAd?$AAo?$AAn?$AAe?$AA?$AA@ 10042a24     ConEmuPlugin2800.obj
 0002:00001a4c       ??_C@_1BK@DFKHOALC@?$AAE?$AAx?$AAi?$AAt?$AAF?$AAA?$AAR?$AAW?$AA2?$AA8?$AA0?$AA0?$AA?$AA@ 10042a4c     ConEmuPlugin2800.obj
 0002:00001a68       ??_C@_1OK@MGLNOED@?$AAE?$AAr?$AAr?$AAo?$AAr?$AA?5?$AAi?$AAn?$AA?5?$AAM?$AAa?$AAc?$AAr?$AAo?$AA?4?$AA?5?$AAF?$AAa?$AAr?$AA?5?$AA?$CF?$AAu?$AA?4?$AA?$CF?$AAu?$AA?5?$AAb?$AAu?$AAi?$AAl?$AAd?$AA?5@ 10042a68     ConEmuPlugin2800.obj
 0002:00001b58       ??_C@_1BCK@KGGLGNDM@?$AAE?$AAr?$AAr?$AAo?$AAr?$AA?5?$AAi?$AAn?$AA?5?$AAM?$AAa?$AAc?$AAr?$AAo?$AA?4?$AA?5?$AAF?$AAa?$AAr?$AA?5?$AA?$CF?$AAu?$AA?4?$AA?$CF?$AAu?$AA?5?$AAb?$AAu?$AAi?$AAl?$AAd?$AA?5@ 10042b58     ConEmuPlugin2800.obj
 0002:00001c88       ??_7CPluginW995@@6B@       10042c88     ConEmuPlugin995.obj
 0002:00001d1c       ??_C@_1CG@PKCNLDOL@?$AAE?$AAx?$AAi?$AAt?$AAF?$AAA?$AAR?$AAW?$AA9?$AA9?$AA5?$AA?5?$AA?9?$AA?5?$AAd?$AAo?$AAn?$AAe?$AA?$AA@ 10042d1c     ConEmuPlugin995.obj
 0002:00001d44       ??_C@_1BI@IBAPHBGL@?$AAE?$AAx?$AAi?$AAt?$AAF?$AAA?$AAR?$AAW?$AA9?$AA9?$AA5?$AA?$AA@ 10042d44     ConEmuPlugin995.obj
 0002:00001d60       ??_7CPluginAnsi@@6B@       10042d60     ConEmuPluginA.obj
 0002:00001df4       ??_C@_1O@BKFLFFPA@?$AAP?$AAl?$AAu?$AAg?$AAi?$AAn?$AA?$AA@ 10042df4     ConEmuPluginA.obj
 0002:00001e04       ??_C@_06HGFNEGAJ@ConEmu?$AA@ 10042e04     ConEmuPluginA.obj
 0002:00001e0b       ??_C@_00CNPNBAHC@?$AA@     10042e0b     ConEmuPluginA.obj
 0002:00001e0c       ??_C@_0P@DFGMHJNG@ConEmuGuiMacro?$AA@ 10042e0c     ConEmuPluginA.obj
 0002:00001e20       ??_7CPluginBase@@6B@       10042e20     ConEmuPluginBase.obj
 0002:00001eb4       ??_C@_1BG@NBIHKCLP@?$AAC?$AAo?$AAn?$AAE?$AAm?$AAu?$AA?4?$AAd?$AAl?$AAl?$AA?$AA@ 10042eb4     ConEmuPluginBase.obj
 0002:00001ecc       ??_C@_1DE@JGMOFHFB@?$AAD?$AAL?$AAL?$AA_?$AAP?$AAR?$AAO?$AAC?$AAE?$AAS?$AAS?$AA_?$AAD?$AAE?$AAT?$AAA?$AAC?$AAH?$AA?5?$AA?9?$AA?5?$AAd?$AAo?$AAn?$AAe?$AA?$AA@ 10042ecc     ConEmuPluginBase.obj
 0002:00001f00       ??_C@_1IA@EGLJCBKE@?$AAS?$AAy?$AAn?$AAc?$AAh?$AAo?$AA?5?$AAe?$AAv?$AAe?$AAn?$AAt?$AAs?$AA?5?$AAa?$AAr?$AAe?$AA?5?$AAp?$AAe?$AAn?$AAd?$AAi?$AAn?$AAg?$AA?$CB?$AA?6?$AAF?$AAa?$AAr?$AA?5?$AAm@ 10042f00     ConEmuPluginBase.obj
 0002:00001f80       ??_C@_1CG@KPFIDADG@?$AAD?$AAL?$AAL?$AA_?$AAP?$AAR?$AAO?$AAC?$AAE?$AAS?$AAS?$AA_?$AAD?$AAE?$AAT?$AAA?$AAC?$AAH?$AA?$AA@ 10042f80     ConEmuPluginBase.obj
 0002:00001fa8       ??_C@_1PO@CKPDODMD@?$AAS?$AAe?$AAv?$AAe?$AAr?$AAa?$AAl?$AA?5?$AAi?$AAn?$AAs?$AAt?$AAa?$AAn?$AAc?$AAe?$AAs?$AA?5?$AAo?$AAf?$AA?5?$AAC?$AAo?$AAn?$AAE?$AAm?$AAu?$AA?5?$AAp?$AAl?$AAu?$AAg@ 10042fa8     ConEmuPluginBase.obj
 0002:000020a8       ??_C@_13LBAGMAIH@?$AA?6?$AA?$AA@ 100430a8     ConEmuPluginBase.obj
 0002:000020ac       ??_C@_1BO@ONHPLONP@?$AAC?$AAo?$AAn?$AAE?$AAm?$AAu?$AA?4?$AAx?$AA6?$AA4?$AA?4?$AAd?$AAl?$AAl?$AA?$AA@ 100430ac     ConEmuPluginBase.obj
 0002:000020d0       ??_C@_1FG@LNADFPCE@?$AAL?$AAo?$AAa?$AAd?$AAF?$AAa?$AAr?$AAV?$AAe?$AAr?$AAs?$AAi?$AAo?$AAn?$AA?4?$AAG?$AAe?$AAt?$AAM?$AAo?$AAd?$AAu?$AAl?$AAe?$AAF?$AAi?$AAl?$AAe?$AAN?$AAa?$AAm?$AAe@ 100430d0     ConEmuPluginBase.obj
 0002:00002128       ??_C@_1CA@GGFPMHLH@?$AA?6?$AAE?$AAr?$AAr?$AAC?$AAo?$AAd?$AAe?$AA?$DN?$AA0?$AAx?$AA?$CF?$AA0?$AA8?$AAX?$AA?$AA@ 10043128     ConEmuPluginBase.obj
 0002:00002148       ??_C@_1EG@IINOBDEG@?$AAI?$AAn?$AAv?$AAa?$AAl?$AAi?$AAd?$AA?5?$AAa?$AAs?$AAM?$AAo?$AAd?$AAu?$AAl?$AAe?$AAP?$AAa?$AAt?$AAh?$AA?5?$AAw?$AAa?$AAs?$AA?5?$AAs?$AAp?$AAe?$AAc?$AAi?$AAf?$AAi@ 10043148     ConEmuPluginBase.obj
 0002:00002190       ??_C@_1GC@CPPHDKJK@?$AAL?$AAo?$AAa?$AAd?$AAA?$AAp?$AAp?$AAV?$AAe?$AAr?$AAs?$AAi?$AAo?$AAn?$AA?4?$AAG?$AAe?$AAt?$AAF?$AAi?$AAl?$AAe?$AAV?$AAe?$AAr?$AAs?$AAi?$AAo?$AAn?$AAI?$AAn?$AAf@ 10043190     ConEmuPluginBase.obj
 0002:000021f8       ??_C@_1GC@BINFLBDC@?$AAL?$AAo?$AAa?$AAd?$AAA?$AAp?$AAp?$AAV?$AAe?$AAr?$AAs?$AAi?$AAo?$AAn?$AA?5?$AAf?$AAa?$AAi?$AAl?$AAe?$AAd?$AA?$CB?$AA?5?$AAC?$AAa?$AAn?$AA?8?$AAt?$AA?5?$AAa?$AAl?$AAl@ 100431f8     ConEmuPluginBase.obj
 0002:00002260       ??_C@_1FK@HILEEFML@?$AAL?$AAo?$AAa?$AAd?$AAA?$AAp?$AAp?$AAV?$AAe?$AAr?$AAs?$AAi?$AAo?$AAn?$AA?4?$AAG?$AAe?$AAt?$AAF?$AAi?$AAl?$AAe?$AAV?$AAe?$AAr?$AAs?$AAi?$AAo?$AAn?$AAI?$AAn?$AAf@ 10043260     ConEmuPluginBase.obj
 0002:000022c0       ??_C@_1FG@DPPGENBC@?$AAL?$AAo?$AAa?$AAd?$AAA?$AAp?$AAp?$AAV?$AAe?$AAr?$AAs?$AAi?$AAo?$AAn?$AA?4?$AAV?$AAe?$AAr?$AAQ?$AAu?$AAe?$AAr?$AAy?$AAV?$AAa?$AAl?$AAu?$AAe?$AA?$CI?$AA?$CC?$AA?2?$AA?$CC@ 100432c0     ConEmuPluginBase.obj
 0002:00002318       ??_C@_1FI@CBKBKFFI@?$AAC?$AAo?$AAn?$AAE?$AAm?$AAu?$AA?5?$AAp?$AAl?$AAu?$AAg?$AAi?$AAn?$AA?5?$AA?$CF?$AA0?$AA2?$AAu?$AA?$CF?$AA0?$AA2?$AAu?$AA?$CF?$AA0?$AA2?$AAu?$AA?$CF?$AAs?$AA?$CF?$AAs?$AA?$FL?$AA?$CF@ 10043318     ConEmuPluginBase.obj
 0002:00002370       ??_C@_13IMODFHAA@?$AA?9?$AA?$AA@ 10043370     ConEmuPluginBase.obj
 0002:00002374       ??_C@_1BG@DILNIJHK@?$AA?$DM?$AAM?$AAs?$AAg?$AAI?$AAD?$AA?$DN?$AA?$CF?$AAi?$AA?$DO?$AA?$AA@ 10043374     ConEmuPluginBase.obj
 0002:0000238c       ??_C@_1BA@CMKDJLHG@?$AA?$HN?$AA?5?$AA?9?$AA?5?$AAF?$AAa?$AAr?$AA?$AA@ 1004338c     ConEmuPluginBase.obj
 0002:000023a0       ??_C@_1LO@GJMEBJHL@?$AAP?$AAl?$AAu?$AAg?$AAi?$AAn?$AA?4?$AAC?$AAa?$AAl?$AAl?$AA?$CI?$AA?$CC?$AA?$CF?$AAs?$AA?$CC?$AA?0?$AA?$CF?$AAi?$AA?0?$AAA?$AAP?$AAa?$AAn?$AAe?$AAl?$AA?4?$AAP?$AAl?$AAu?$AAg?$AAi@ 100433a0     ConEmuPluginBase.obj
 0002:00002460       ??_C@_1BBO@FBOKPEBF@?$AA$?$AAi?$AAf?$AA?5?$AA?$CI?$AAA?$AAP?$AAa?$AAn?$AAe?$AAl?$AA?4?$AAP?$AAl?$AAu?$AAg?$AAi?$AAn?$AA?$CJ?$AA?5?$AA?$CF?$AA?$CF?$AAA?$AA?$DN?$AA?$CC?$AA?$CC?$AA?$DL?$AA?5?$AA$?$AAe?$AAl?$AAs@ 10043460     ConEmuPluginBase.obj
 0002:00002580       ??_C@_1EK@LJEKIKEG@?$AA4?$AAb?$AA6?$AA7?$AA5?$AAd?$AA8?$AA0?$AA?9?$AA1?$AAd?$AA4?$AAa?$AA?9?$AA4?$AAe?$AAa?$AA9?$AA?9?$AA8?$AA4?$AA3?$AA6?$AA?9?$AAf?$AAd?$AAc?$AA2?$AA3?$AAf?$AA2?$AAf@ 10043580     ConEmuPluginBase.obj
 0002:000025d0       ??_C@_1PO@DJAPICLP@?$AA$?$AAi?$AAf?$AA?5?$AA?$CI?$AA?$CB?$AAE?$AAd?$AAi?$AAt?$AAo?$AAr?$AA?5?$AA?$CG?$AA?$CG?$AA?5?$AA?$CB?$AAV?$AAi?$AAe?$AAw?$AAe?$AAr?$AA?$CJ?$AA?5?$AA$?$AAi?$AAf?$AA?5?$AA?$CI?$AA?$CB?$AAA@ 100435d0     ConEmuPluginBase.obj
 0002:000026d0       ??_C@_1BK@NEALEMPH@?$AA?9?$AAn?$AAe?$AAw?$AA_?$AAc?$AAo?$AAn?$AAs?$AAo?$AAl?$AAe?$AA?$AA@ 100436d0     ConEmuPluginBase.obj
 0002:000026ec       ??_C@_17BJPFHBEJ@?$AAC?$AA?3?$AA?2?$AA?$AA@ 100436ec     ConEmuPluginBase.obj
 0002:000026f4       ??_C@_1CM@MHCEHIEP@?$AAS?$AAt?$AAa?$AAr?$AAt?$AA?5?$AAc?$AAo?$AAn?$AAs?$AAo?$AAl?$AAe?$AA?5?$AAp?$AAr?$AAo?$AAg?$AAr?$AAa?$AAm?$AA?$AA@ 100436f4     ConEmuPluginBase.obj
 0002:00002720       ??_C@_1CK@KEKIDABI@?$AAC?$AAo?$AAn?$AAE?$AAm?$AAu?$AA?4?$AAC?$AAr?$AAe?$AAa?$AAt?$AAe?$AAP?$AAr?$AAo?$AAc?$AAe?$AAs?$AAs?$AA?$AA@ 10043720     ConEmuPluginBase.obj
 0002:0000274c       ??_C@_19KHBBCLDH@?$AAr?$AAu?$AAn?$AA?3?$AA?$AA@ 1004374c     ConEmuPluginBase.obj
 0002:00002758       ??_C@_1BPK@LEDPNENO@?$AAC?$AAo?$AAn?$AAE?$AAm?$AAu?$AA?5?$AAC?$AAo?$AAn?$AAs?$AAo?$AAl?$AAe?$AA?5?$AAi?$AAn?$AAf?$AAo?$AAr?$AAm?$AAa?$AAt?$AAi?$AAo?$AAn?$AA?6?$AAT?$AAe?$AAr?$AAm?$AAi@ 10043758     ConEmuPluginBase.obj
 0002:00002954       ??_C@_15BICKNCBF@?$AAN?$AAo?$AA?$AA@ 10043954     ConEmuPluginBase.obj
 0002:0000295c       ??_C@_17PBAHFJOA@?$AAY?$AAe?$AAs?$AA?$AA@ 1004395c     ConEmuPluginBase.obj
 0002:00002964       ??_C@_13IABLFADB@?$AAH?$AA?$AA@ 10043964     ConEmuPluginBase.obj
 0002:00002968       ??_C@_13DANNHAJN@?$AAV?$AA?$AA@ 10043968     ConEmuPluginBase.obj
 0002:00002970       ??_C@_1FC@DNELIAOB@?$AA?$CC?$AA?$CF?$AAs?$AA?$CC?$AA?5?$AA?1?$AAD?$AAE?$AAB?$AAU?$AAG?$AAP?$AAI?$AAD?$AA?$DN?$AA?$CF?$AAi?$AA?5?$AA?1?$AAB?$AAW?$AA?$DN?$AA?$CF?$AAi?$AA?5?$AA?1?$AAB?$AAH?$AA?$DN?$AA?$CF?$AAi?$AA?5@ 10043970     ConEmuPluginBase.obj
 0002:000029c8       ??_C@_1HI@LCPDMAIJ@?$AA?$CC?$AA?$CF?$AAs?$AA?$CC?$AA?5?$AA?1?$AAA?$AAT?$AAT?$AAA?$AAC?$AAH?$AA?5?$AA?1?$AAR?$AAO?$AAO?$AAT?$AA?5?$AA?$CC?$AA?$CF?$AAs?$AA?$CC?$AA?5?$AA?1?$AAD?$AAE?$AAB?$AAU?$AAG?$AAP?$AAI@ 100439c8     ConEmuPluginBase.obj
 0002:00002a40       ??_C@_1CI@DIEJPMOK@?$AA?2?$AAC?$AAo?$AAn?$AAE?$AAm?$AAu?$AA?2?$AAC?$AAo?$AAn?$AAE?$AAm?$AAu?$AAC?$AA?4?$AAe?$AAx?$AAe?$AA?$AA@ 10043a40     ConEmuPluginBase.obj
 0002:00002a68       ??_C@_1BK@PCAIPEAH@?$AA?2?$AAC?$AAo?$AAn?$AAE?$AAm?$AAu?$AAC?$AA?4?$AAe?$AAx?$AAe?$AA?$AA@ 10043a68     ConEmuPluginBase.obj
 0002:00002a84       ??_C@_1BM@MGPNCPCE@?$AAC?$AAo?$AAn?$AAE?$AAm?$AAu?$AAB?$AAa?$AAs?$AAe?$AAD?$AAi?$AAr?$AA?$AA@ 10043a84     ConEmuPluginBase.obj
 0002:00002aa0       ??_C@_0BD@DHBGKFD@RequestLocalServer?$AA@ 10043aa0     ConEmuPluginBase.obj
 0002:00002ab4       ??_C@_1CI@EIEAGHGL@?$AAC?$AAo?$AAn?$AAE?$AAm?$AAu?$AAS?$AAr?$AAv?$AAS?$AAt?$AAa?$AAr?$AAt?$AAe?$AAd?$AA?4?$AA?$CF?$AAu?$AA?$AA@ 10043ab4     ConEmuPluginBase.obj
 0002:00002adc       ??_C@_1BC@ENBPIJOP@?$AA?5?$AA?1?$AAG?$AAI?$AAD?$AA?$DN?$AA?$CF?$AAi?$AA?$AA@ 10043adc     ConEmuPluginBase.obj
 0002:00002af0       ??_C@_1CK@NAOALPKN@?$AA?$CC?$AA?5?$AA?1?$AAA?$AAT?$AAT?$AAA?$AAC?$AAH?$AA?5?$AA?1?$AAF?$AAA?$AAR?$AAP?$AAI?$AAD?$AA?$DN?$AA?$CF?$AAi?$AA?$AA@ 10043af0     ConEmuPluginBase.obj
 0002:00002b1c       ??_C@_1BM@JNIGIIH@?$AA?2?$AAC?$AAo?$AAn?$AAE?$AAm?$AAu?$AAH?$AAk?$AA?4?$AAd?$AAl?$AAl?$AA?$AA@ 10043b1c     ConEmuPluginBase.obj
 0002:00002b38       ??_C@_19LKKOIHJI@?$AA?4?$AAt?$AAm?$AAp?$AA?$AA@ 10043b38     ConEmuPluginBase.obj
 0002:00002b44       ??_C@_17LCEPOKH@?$AAC?$AAE?$AAM?$AA?$AA@ 10043b44     ConEmuPluginBase.obj
 0002:00002b50       ??_C@_1BFI@CAKBMDAF@?$AAW?$AAr?$AAo?$AAn?$AAg?$AA?5?$AAp?$AAl?$AAu?$AAg?$AAi?$AAn?$AA?5?$AAv?$AAe?$AAr?$AAs?$AAi?$AAo?$AAn?$AA?5?$AAw?$AAa?$AAs?$AA?5?$AAl?$AAo?$AAa?$AAd?$AAe?$AAd?$AA?5@ 10043b50     ConEmuPluginBase.obj
 0002:00002ca8       ??_C@_1EA@BFFHMENH@?$AAC?$AAo?$AAn?$AAE?$AAm?$AAu?$AAC?$AA?3?$AA?5?$AAC?$AAh?$AAe?$AAc?$AAk?$AAR?$AAe?$AAs?$AAo?$AAu?$AAr?$AAc?$AAe?$AAs?$AA?5?$AAs?$AAt?$AAa?$AAr?$AAt?$AAe?$AAd?$AA?$AA@ 10043ca8     ConEmuPluginBase.obj
 0002:00002ce8       ??_C@_1BA@DAHNNHGF@?$AAF?$AAA?$AAR?$AAL?$AAA?$AAN?$AAG?$AA?$AA@ 10043ce8     ConEmuPluginBase.obj
 0002:00002cf8       ??_C@_1CC@IHNECLD@?$AA?$HL?$AAT?$AAe?$AAm?$AAp?$AAo?$AAr?$AAa?$AAr?$AAy?$AA?5?$AAp?$AAa?$AAn?$AAe?$AAl?$AA?$AA@ 10043cf8     ConEmuPluginBase.obj
 0002:00002d1c       ??_C@_19IGFHNPAK@?$AAv?$AAi?$AAe?$AAw?$AA?$AA@ 10043d1c     ConEmuPluginBase.obj
 0002:00002d28       ??_C@_19LELMJPKF@?$AAe?$AAd?$AAi?$AAt?$AA?$AA@ 10043d28     ConEmuPluginBase.obj
 0002:00002d34       ??_C@_1BE@FLHKCJKF@?$AAS?$AAo?$AAf?$AAt?$AAw?$AAa?$AAr?$AAe?$AA?2?$AA?$AA@ 10043d34     ConEmuPluginBase.obj
 0002:00002d48       ??_C@_1BA@FJJFMPFO@?$AA?2?$AAU?$AAs?$AAe?$AAr?$AAs?$AA?2?$AA?$AA@ 10043d48     ConEmuPluginBase.obj
 0002:00002d58       ??_C@_1BA@NIFIBMHP@?$AAF?$AAA?$AAR?$AAU?$AAS?$AAE?$AAR?$AA?$AA@ 10043d58     ConEmuPluginBase.obj
 0002:00002d68       ??_C@_17NACPPFBM@?$AAF?$AAA?$AAR?$AA?$AA@ 10043d68     ConEmuPluginBase.obj
 0002:00002d70       ??_C@_19HBICLLML@?$AAF?$AAA?$AAR?$AA2?$AA?$AA@ 10043d70     ConEmuPluginBase.obj
 0002:00002d7c       ??_C@_1BI@ENONIIIC@?$AAF?$AAa?$AAr?$AA?5?$AAM?$AAa?$AAn?$AAa?$AAg?$AAe?$AAr?$AA?$AA@ 10043d7c     ConEmuPluginBase.obj
 0002:00002d94       ??_C@_1BI@GILFJGEK@?$AAB?$AAu?$AAt?$AAt?$AAo?$AAn?$AAC?$AAo?$AAl?$AAo?$AAr?$AA?$AA@ 10043d94     ConEmuPluginBase.obj
 0002:00002dac       ??_C@_1BK@NFAPLMGI@?$AAS?$AAe?$AAp?$AAa?$AAr?$AAa?$AAt?$AAe?$AAT?$AAa?$AAb?$AAs?$AA?$AA@ 10043dac     ConEmuPluginBase.obj
 0002:00002dc8       ??_C@_1CG@HOMCPCN@?$AA?2?$AAP?$AAl?$AAu?$AAg?$AAi?$AAn?$AAs?$AA?2?$AAP?$AAa?$AAn?$AAe?$AAl?$AAT?$AAa?$AAb?$AAs?$AA?$AA@ 10043dc8     ConEmuPluginBase.obj
 0002:00002df0       ??_C@_0BJ@GFJHAGKD@AllowSetForegroundWindow?$AA@ 10043df0     ConEmuPluginBase.obj
 0002:00002e0c       ??_C@_1BG@OILDLIOJ@?$AAu?$AAs?$AAe?$AAr?$AA3?$AA2?$AA?4?$AAd?$AAl?$AAl?$AA?$AA@ 10043e0c     ConEmuPluginBase.obj
 0002:00002e24       ??_C@_0BG@HFNJBNKJ@Plugin?3?3MonitorThread?$AA@ 10043e24     ConEmuPluginBase.obj
 0002:00002e3c       ??_C@_1CE@DLFCKCF@?$AAC?$AAo?$AAn?$AAE?$AAm?$AAu?$AAT?$AAa?$AAb?$AAs?$AAC?$AAh?$AAa?$AAn?$AAg?$AAe?$AAd?$AA?$AA@ 10043e3c     ConEmuPluginBase.obj
 0002:00002e60       ??_C@_1CM@JBFABNEO@?$AAC?$AAo?$AAn?$AAE?$AAm?$AAu?$AAS?$AAh?$AAi?$AAf?$AAt?$AAP?$AAr?$AAe?$AAs?$AAs?$AAe?$AAd?$AA?4?$AA?$CF?$AAu?$AA?$AA@ 10043e60     ConEmuPluginBase.obj
 0002:00002e8c       ??_C@_1CK@EANOIBDN@?$AAC?$AAo?$AAn?$AAE?$AAm?$AAu?$AAC?$AAt?$AAr?$AAl?$AAP?$AAr?$AAe?$AAs?$AAs?$AAe?$AAd?$AA?4?$AA?$CF?$AAu?$AA?$AA@ 10043e8c     ConEmuPluginBase.obj
 0002:00002eb8       ??_C@_1DE@DBNFJOHM@?$AAC?$AAo?$AAn?$AAs?$AAo?$AAl?$AAe?$AA2?$AA_?$AAc?$AAo?$AAn?$AAs?$AAo?$AAl?$AAe?$AAB?$AAu?$AAf?$AAf?$AAe?$AAr?$AA_?$AA?$CF?$AAd?$AA?$AA@ 10043eb8     ConEmuPluginBase.obj
 0002:00002eec       ??_C@_1BK@HOIBFEDE@?$AAC?$AAo?$AAn?$AAE?$AAm?$AAu?$AAC?$AAD?$AA?4?$AAd?$AAl?$AAl?$AA?$AA@ 10043eec     ConEmuPluginBase.obj
 0002:00002f08       ??_C@_1HO@CHHOFADM@?$AAC?$AAo?$AAn?$AAs?$AAo?$AAl?$AAe?$AA?5?$AAw?$AAa?$AAs?$AA?5?$AAa?$AAb?$AAn?$AAo?$AAr?$AAm?$AAa?$AAl?$AAl?$AAy?$AA?5?$AAt?$AAe?$AAr?$AAm?$AAi?$AAn?$AAt?$AAa?$AAt@ 10043f08     ConEmuPluginBase.obj
 0002:00002f88       ??_C@_1CE@JNNPBELN@?$AAE?$AAx?$AAi?$AAt?$AAF?$AAa?$AAr?$AAC?$AAm?$AAn?$AA?5?$AA?9?$AA?5?$AAd?$AAo?$AAn?$AAe?$AA?$AA@ 10043f88     ConEmuPluginBase.obj
 0002:00002fac       ??_C@_1BG@KACGKIIO@?$AAE?$AAx?$AAi?$AAt?$AAF?$AAa?$AAr?$AAC?$AAm?$AAn?$AA?$AA@ 10043fac     ConEmuPluginBase.obj
 0002:00002fc8       ??_C@_1BBA@LKLGFJB@?$AAi?$AAf?$AA?5?$AAA?$AAr?$AAe?$AAa?$AA?4?$AAS?$AAe?$AAa?$AAr?$AAc?$AAh?$AA?5?$AAt?$AAh?$AAe?$AAn?$AA?5?$AAK?$AAe?$AAy?$AAs?$AA?$CI?$AA?$CC?$AAE?$AAs?$AAc?$AA?$CC?$AA?$CJ?$AA?5@ 10043fc8     ConEmuPluginBase.obj
 0002:000030d8       ??_C@_1MK@EDFFIGHJ@?$AA$?$AAi?$AAf?$AA?5?$AA?$CI?$AAS?$AAe?$AAa?$AAr?$AAc?$AAh?$AA?$CJ?$AA?5?$AAE?$AAs?$AAc?$AA?5?$AA$?$AAe?$AAn?$AAd?$AA?5?$AA$?$AAi?$AAf?$AA?5?$AA?$CI?$AAS?$AAh?$AAe?$AAl?$AAl@ 100440d8     ConEmuPluginBase.obj
 0002:000031a8       ??_C@_1NC@MNABBPPB@?$AA$?$AAi?$AAf?$AA?5?$AA?$CI?$AAS?$AAe?$AAa?$AAr?$AAc?$AAh?$AA?$CJ?$AA?5?$AAE?$AAs?$AAc?$AA?5?$AA$?$AAe?$AAn?$AAd?$AA?5?$AA$?$AAi?$AAf?$AA?5?$AA?$CI?$AAS?$AAh?$AAe?$AAl?$AAl@ 100441a8     ConEmuPluginBase.obj
 0002:0000327c       ??_C@_0P@JNNILPEA@SetStartupInfo?$AA@ 1004427c     ConEmuPluginBase.obj
 0002:0000328c       ??_C@_0BA@IDLLFCLM@SetStartupInfoW?$AA@ 1004428c     ConEmuPluginBase.obj
 0002:0000329c       ??_C@_0P@LNKHCDND@OnConEmuLoaded?$AA@ 1004429c     ConEmuPluginBase.obj
 0002:000032ac       ??_C@_1CE@PBCFEBMN@?$AAS?$AAt?$AAo?$AAp?$AAT?$AAh?$AAr?$AAe?$AAa?$AAd?$AA?5?$AA?9?$AA?5?$AAd?$AAo?$AAn?$AAe?$AA?$AA@ 100442ac     ConEmuPluginBase.obj
 0002:000032d0       ??_C@_0BF@HFFKFJOJ@ConEmuPluginBase?4cpp?$AA@ 100442d0     ConEmuPluginBase.obj
 0002:000032e8       ??_C@_1BM@JHDMPIJF@?$AA?4?$AA?4?$AA?4?$AAF?$AAi?$AAn?$AAa?$AAl?$AAi?$AAz?$AAi?$AAn?$AAg?$AA?$AA@ 100442e8     ConEmuPluginBase.obj
 0002:00003304       ??_C@_1CG@BFNCAMEE@?$AA?4?$AA?4?$AA?4?$AAS?$AAt?$AAo?$AAp?$AAp?$AAi?$AAn?$AAg?$AA?5?$AAs?$AAe?$AAr?$AAv?$AAe?$AAr?$AA?$AA@ 10044304     ConEmuPluginBase.obj
 0002:0000332c       ??_C@_1BO@LCKDINAJ@?$AA?4?$AA?4?$AA?4?$AAC?$AAl?$AAo?$AAs?$AAi?$AAn?$AAg?$AAT?$AAa?$AAb?$AAs?$AA?$AA@ 1004432c     ConEmuPluginBase.obj
 0002:0000334c       ??_C@_1BG@EPEIPMDI@?$AAS?$AAt?$AAo?$AAp?$AAT?$AAh?$AAr?$AAe?$AAa?$AAd?$AA?$AA@ 1004434c     ConEmuPluginBase.obj
 0002:00003364       ??_C@_1CC@DFJIOIPL@?$AAK?$AAe?$AAy?$AAs?$AA?$CI?$AA?8?$AAM?$AAs?$AAL?$AAC?$AAl?$AAi?$AAc?$AAk?$AA?8?$AA?$CJ?$AA?$AA@ 10044364     ConEmuPluginBase.obj
 0002:00003388       ??_C@_1BC@GNOFNJJG@?$AAM?$AAs?$AAL?$AAC?$AAl?$AAi?$AAc?$AAk?$AA?$AA@ 10044388     ConEmuPluginBase.obj
 0002:0000339c       ??_C@_1DO@LEFBPADB@?$AAi?$AAf?$AA?5?$AAA?$AAr?$AAe?$AAa?$AA?4?$AAS?$AAe?$AAa?$AAr?$AAc?$AAh?$AA?5?$AAK?$AAe?$AAy?$AAs?$AA?$CI?$AA?$CC?$AAE?$AAs?$AAc?$AA?$CC?$AA?$CJ?$AA?5?$AAe?$AAn?$AAd?$AA?$AA@ 1004439c     ConEmuPluginBase.obj
 0002:000033dc       ??_C@_1CM@IICFOBPI@?$AA$?$AAi?$AAf?$AA?5?$AA?$CI?$AAS?$AAe?$AAa?$AAr?$AAc?$AAh?$AA?$CJ?$AA?5?$AAE?$AAs?$AAc?$AA?5?$AA$?$AAe?$AAn?$AAd?$AA?$AA@ 100443dc     ConEmuPluginBase.obj
 0002:00003408       ??_C@_1CAM@BBLMGMFK@?$AA?$EA?$AA$?$AAI?$AAf?$AA?5?$AA?$CI?$AA?$CB?$AAC?$AAm?$AAd?$AAL?$AAi?$AAn?$AAe?$AA?4?$AAE?$AAm?$AAp?$AAt?$AAy?$AA?$CJ?$AA?5?$AA?$CF?$AAF?$AAl?$AAg?$AA_?$AAC?$AAm?$AAd?$AA?$DN?$AA1@ 10044408     ConEmuPluginBase.obj
 0002:00003618       ??_C@_1CCO@OMFPMNEO@?$AA?$EA?$AAi?$AAf?$AA?5?$AAn?$AAo?$AAt?$AA?5?$AAC?$AAm?$AAd?$AAL?$AAi?$AAn?$AAe?$AA?4?$AAE?$AAm?$AAp?$AAt?$AAy?$AA?5?$AAt?$AAh?$AAe?$AAn?$AA?5?$AAF?$AAl?$AAg?$AA_?$AAC@ 10044618     ConEmuPluginBase.obj
 0002:00003848       ??_C@_1CG@OILEFJJN@?$AAC?$AAo?$AAn?$AAE?$AAm?$AAu?$AAT?$AAh?$AA?3?$AA?3?$AAS?$AAe?$AAt?$AAt?$AAi?$AAn?$AAg?$AAs?$AA?$AA@ 10044848     ConEmuPluginBase.obj
 0002:00003870       ??_C@_1CO@INAJPHBH@?$AAC?$AAo?$AAn?$AAE?$AAm?$AAu?$AAF?$AAa?$AAr?$AAA?$AAl?$AAi?$AAv?$AAe?$AAE?$AAv?$AAe?$AAn?$AAt?$AA?4?$AA?$CF?$AAu?$AA?$AA@ 10044870     ConEmuPluginBase.obj
 0002:000038a0       ??_C@_1CI@MBMLEGFG@?$AAC?$AAo?$AAn?$AAE?$AAm?$AAu?$AAF?$AAa?$AAr?$AAM?$AAa?$AAp?$AAp?$AAi?$AAn?$AAg?$AA?4?$AA?$CF?$AAu?$AA?$AA@ 100448a0     ConEmuPluginBase.obj
 0002:000038c8       ??_C@_15NJGDBKNF@?$AA?$CC?$AA?$CJ?$AA?$AA@ 100448c8     ConEmuPluginBase.obj
 0002:000038d0       ??_C@_1BE@CPLNCDLK@?$AA?$EA?$AA?$FO?$AAp?$AAr?$AAi?$AAn?$AAt?$AA?$CI?$AA?$CC?$AA?$AA@ 100448d0     ConEmuPluginBase.obj
 0002:000038e4       ??_C@_1BE@GLIABAAK@?$AA?$EA?$AA?$FO?$AA$?$AAT?$AAE?$AAX?$AAT?$AA?5?$AA?$CC?$AA?$AA@ 100448e4     ConEmuPluginBase.obj
 0002:000038f8       ??_C@_1BO@CJPKCNHF@?$AAL?$AAu?$AAc?$AAi?$AAd?$AAa?$AA?5?$AAC?$AAo?$AAn?$AAs?$AAo?$AAl?$AAe?$AA?$AA@ 100448f8     EmergencyShow.obj
 0002:00003918       ??_C@_1EM@OAOIIPGN@?$AAC?$AAo?$AAn?$AAs?$AAo?$AAl?$AAe?$AA?2?$AA?$CF?$AAS?$AAy?$AAs?$AAt?$AAe?$AAm?$AAR?$AAo?$AAo?$AAt?$AA?$CF?$AA_?$AAs?$AAy?$AAs?$AAt?$AAe?$AAm?$AA3?$AA2?$AA_?$AAc?$AAm@ 10044918     EmergencyShow.obj
 0002:00003964       ??_C@_1BC@MAHCNJIF@?$AAF?$AAo?$AAn?$AAt?$AAS?$AAi?$AAz?$AAe?$AA?$AA@ 10044964     EmergencyShow.obj
 0002:00003978       ??_C@_1BA@GIKDDGPH@?$AAC?$AAo?$AAn?$AAs?$AAo?$AAl?$AAe?$AA?$AA@ 10044978     EmergencyShow.obj
 0002:00003988       ??_C@_1DC@GKBPJPHN@?$AAC?$AAo?$AAn?$AAE?$AAm?$AAu?$AAE?$AAm?$AAe?$AAr?$AAg?$AAe?$AAn?$AAc?$AAy?$AAS?$AAh?$AAo?$AAw?$AA?3?$AA?$CF?$AA0?$AA8?$AAX?$AA?$AA@ 10044988     EmergencyShow.obj
 0002:000039bc       ??_C@_19IGNAGDCF@?$AA?4?$AAb?$AAt?$AAm?$AA?$AA@ 100449bc     Execute.obj
 0002:000039c8       ??_C@_19PINKOIBI@?$AA?4?$AAb?$AAa?$AAt?$AA?$AA@ 100449c8     Execute.obj
 0002:000039d4       ??_C@_19BDKLHPGC@?$AA?4?$AAc?$AAm?$AAd?$AA?$AA@ 100449d4     Execute.obj
 0002:000039e0       ??_C@_1GK@PPEHOOAL@?$AAS?$AAO?$AAF?$AAT?$AAW?$AAA?$AAR?$AAE?$AA?2?$AAM?$AAi?$AAc?$AAr?$AAo?$AAs?$AAo?$AAf?$AAt?$AA?2?$AAW?$AAi?$AAn?$AAd?$AAo?$AAw?$AAs?$AA?2?$AAC?$AAu?$AAr?$AAr?$AAe@ 100449e0     Execute.obj
 0002:00003a4c       ??_C@_0M@HLOHPNFA@RegCloseKey?$AA@ 10044a4c     Execute.obj
 0002:00003a58       ??_C@_0BB@GLNAEDBD@RegQueryValueExW?$AA@ 10044a58     Execute.obj
 0002:00003a6c       ??_C@_0O@COHOBMLB@RegOpenKeyExW?$AA@ 10044a6c     Execute.obj
 0002:00003a7c       ??_C@_1BK@CJEOECB@?$AAA?$AAd?$AAv?$AAA?$AAp?$AAi?$AA3?$AA2?$AA?4?$AAd?$AAl?$AAl?$AA?$AA@ 10044a7c     Execute.obj
 0002:00003a98       ??_C@_1DE@JNLGFOOP@?$AA?4?$AAC?$AAO?$AAM?$AA?$DL?$AA?4?$AAE?$AAX?$AAE?$AA?$DL?$AA?4?$AAB?$AAA?$AAT?$AA?$DL?$AA?4?$AAC?$AAM?$AAD?$AA?$DL?$AA?4?$AAB?$AAT?$AAM?$AA?$DL?$AA?$AA@ 10044a98     Execute.obj
 0002:00003acc       ??_C@_0BD@HGJIAJJM@RequestTrampolines?$AA@ 10044acc     HkFunc.obj
 0002:00003ae0       ??_C@_1BM@GLLFNEEF@?$AAS?$AAh?$AAe?$AAl?$AAl?$AA_?$AAT?$AAr?$AAa?$AAy?$AAW?$AAn?$AAd?$AA?$AA@ 10044ae0     Monitors.obj
 0002:00003afc       ??_7MToolHelpProcess@@6B@  10044afc     MProcess.obj
 0002:00003b04       ??_C@_1BI@MPDCNJBA@?$AAt?$AAl?$AAn?$AAt?$AAs?$AAv?$AAr?$AA?4?$AAe?$AAx?$AAe?$AA?$AA@ 10044b04     MProcess.obj
 0002:00003b1c       ??_C@_1BK@HHKNEJDC@?$AAt?$AAl?$AAn?$AAt?$AAs?$AAe?$AAs?$AAs?$AA?4?$AAe?$AAx?$AAe?$AA?$AA@ 10044b1c     MProcess.obj
 0002:00003b38       ??_7?$MToolHelp@UtagPROCESSENTRY32W@@$1?Process32FirstW@@YGHPAXPAU1@@Z$1?Process32NextW@@YGH01@Z@@6B@ 10044b38     MProcess.obj
 0002:00003b40       ??_C@_0BK@DNNLOFO@SetSecurityDescriptorDacl?$AA@ 10044b40     MSecurity.obj
 0002:00003b5c       ??_C@_0BN@FNLANPJJ@InitializeSecurityDescriptor?$AA@ 10044b5c     MSecurity.obj
 0002:00003b7c       ??_C@_0O@GKCEJBAA@InitializeAcl?$AA@ 10044b7c     MSecurity.obj
 0002:00003b8c       ??_C@_0N@HBKDHKNL@GetLengthSid?$AA@ 10044b8c     MSecurity.obj
 0002:00003b9c       ??_C@_0BJ@ECIKFEOL@AllocateAndInitializeSid?$AA@ 10044b9c     MSecurity.obj
 0002:00003bb8       ??_C@_0BD@EIGAJLOG@AddAccessDeniedAce?$AA@ 10044bb8     MSecurity.obj
 0002:00003bcc       ??_C@_0BE@IPKPLIM@AddAccessAllowedAce?$AA@ 10044bcc     MSecurity.obj
 0002:00003be0       ??_C@_1BK@BIGILECK@?$AAA?$AAd?$AAv?$AAa?$AAp?$AAi?$AA3?$AA2?$AA?4?$AAd?$AAl?$AAl?$AA?$AA@ 10044be0     MSecurity.obj
 0002:00003bfc       ??_C@_1BO@HJHEFHMO@?$AAK?$AAe?$AAr?$AAn?$AAe?$AAl?$AAB?$AAa?$AAs?$AAe?$AA?4?$AAd?$AAl?$AAl?$AA?$AA@ 10044bfc     MSecurity.obj
 0002:00003c1c       ??_C@_15LKGMKBFA@?$AA0?$AA0?$AA?$AA@ 10044c1c     MStrSafe.obj
 0002:00003c24       ??_C@_19FBKLJMA@?$AA0?$AA0?$AA0?$AA0?$AA?$AA@ 10044c24     MStrSafe.obj
 0002:00003c30       ??_C@_1BC@LMIJMNIA@?$AA0?$AA0?$AA0?$AA0?$AA0?$AA0?$AA0?$AA0?$AA?$AA@ 10044c30     MStrSafe.obj
 0002:00003c44       ??_C@_02PLJDPFIO@00?$AA@   10044c44     MStrSafe.obj
 0002:00003c48       ??_C@_04JDPKJLKG@0000?$AA@ 10044c48     MStrSafe.obj
 0002:00003c50       ??_C@_08LEDEEJEF@00000000?$AA@ 10044c50     MStrSafe.obj
 0002:00003c5c       ??_C@_1DA@OEIAGFIH@?$AAC?$AAo?$AAn?$AAE?$AAm?$AAu?$AA?$AA?$AAF?$AAa?$AAr?$AA?5?$AAB?$AAa?$AAc?$AAk?$AAg?$AAr?$AAo?$AAu?$AAn?$AAd?$AA?$AA?$AA?$AA?$AA?$AA@ 10044c5c     PluginBackground.obj
 0002:00003c8c       ??_C@_1DA@BMIFHIMF@?$AAC?$AAo?$AAn?$AAE?$AAm?$AAu?$AAV?$AAi?$AAe?$AAw?$AAS?$AAe?$AAt?$AAM?$AAa?$AAp?$AAp?$AAi?$AAn?$AAg?$AA?4?$AA?$CF?$AAu?$AA?$AA@ 10044c8c     PluginBackground.obj
 0002:00003cbc       ??_C@_1DC@PFNEMDKA@?$AA?2?$AA?2?$AA?$CF?$AAs?$AA?2?$AAp?$AAi?$AAp?$AAe?$AA?2?$AAC?$AAo?$AAn?$AAE?$AAm?$AAu?$AAP?$AAl?$AAu?$AAg?$AAi?$AAn?$AA?$CF?$AAu?$AA?$AA@ 10044cbc     PluginSrv.obj
 0002:00003cf0       ??_C@_19HGGOABND@?$AA?$CF?$AA0?$AA8?$AAx?$AA?$AA@ 10044cf0     PluginSrv.obj
 0002:00003d00       ??_C@_1FM@LPOPCJG@?$AAS?$AAt?$AAa?$AAr?$AAt?$AAP?$AAi?$AAp?$AAe?$AAS?$AAe?$AAr?$AAv?$AAe?$AAr?$AA?3?$AAa?$AAp?$AAf?$AAn?$AAP?$AAi?$AAp?$AAe?$AAS?$AAe?$AAr?$AAv?$AAe?$AAr?$AAC?$AAo@ 10044d00     PluginSrv.obj
 0002:00003d60       ??_C@_1FG@DJFPBHJF@?$AAP?$AAi?$AAp?$AAe?$AAS?$AAe?$AAr?$AAv?$AAe?$AAr?$AAE?$AAr?$AAr?$AAo?$AAr?$AA?0?$AA?5?$AAP?$AAI?$AAD?$AA?$DN?$AA?$CF?$AAu?$AA?0?$AA?5?$AAT?$AAI?$AAD?$AA?$DN?$AA?$CF?$AAu?$AA?6@ 10044d60     PluginSrv.obj
 0002:00003db8       ??_C@_1EA@JFONKNJK@?$AAP?$AAi?$AAp?$AAe?$AAS?$AAe?$AAr?$AAv?$AAe?$AAr?$AAE?$AAr?$AAr?$AAo?$AAr?$AA?0?$AA?5?$AAP?$AAI?$AAD?$AA?$DN?$AA?$CF?$AAu?$AA?0?$AA?5?$AAT?$AAI?$AAD?$AA?$DN?$AA?$CF?$AAu?$AA?$AA@ 10044db8     PluginSrv.obj
 0002:00003df8       ??_C@_1M@KGONCMNM@?$AA?$CF?$AAs?$AA?6?$AA?$CF?$AAs?$AA?$AA@ 10044df8     PluginSrv.obj
 0002:00003e08       ??_C@_1GG@PAGGIEEF@?$AAS?$AAt?$AAa?$AAr?$AAt?$AAP?$AAi?$AAp?$AAe?$AAI?$AAn?$AAs?$AAt?$AAa?$AAn?$AAc?$AAe?$AA?3?$AAC?$AAr?$AAe?$AAa?$AAt?$AAe?$AAT?$AAh?$AAr?$AAe?$AAa?$AAd?$AA?5?$AAf@ 10044e08     PluginSrv.obj
 0002:00003e70       ??_C@_0BB@MDGFLNIP@PipeServerThread?$AA@ 10044e70     PluginSrv.obj
 0002:00003e88       ??_C@_1GC@MCEAIMAO@?$AAS?$AAt?$AAa?$AAr?$AAt?$AAP?$AAi?$AAp?$AAe?$AAI?$AAn?$AAs?$AAt?$AAa?$AAn?$AAc?$AAe?$AA?3?$AAC?$AAr?$AAe?$AAa?$AAt?$AAe?$AAE?$AAv?$AAe?$AAn?$AAt?$AA?5?$AAf?$AAa@ 10044e88     PluginSrv.obj
 0002:00003ef0       ??_C@_0EF@JMEBABEH@t?3?2vcproject?2maximus5?2conemu?2src@ 10044ef0     PluginSrv.obj
 0002:00003f38       ??_C@_1GK@OLPCHMBE@?$AAP?$AAi?$AAp?$AAe?$AAS?$AAe?$AAr?$AAv?$AAe?$AAr?$AAT?$AAh?$AAr?$AAe?$AAa?$AAd?$AA?3?$AAC?$AAo?$AAn?$AAn?$AAe?$AAc?$AAt?$AAN?$AAa?$AAm?$AAe?$AAd?$AAP?$AAi?$AAp@ 10044f38     PluginSrv.obj
 0002:00003fa8       ??_C@_1HG@LHMKOAMG@?$AAP?$AAi?$AAp?$AAe?$AAS?$AAe?$AAr?$AAv?$AAe?$AAr?$AAT?$AAh?$AAr?$AAe?$AAa?$AAd?$AA?3?$AAW?$AAa?$AAi?$AAt?$AAF?$AAo?$AAr?$AAM?$AAu?$AAl?$AAt?$AAi?$AAp?$AAl?$AAe@ 10044fa8     PluginSrv.obj
 0002:00004020       ??_C@_1HA@EGHGJDPG@?$AAP?$AAi?$AAp?$AAe?$AAS?$AAe?$AAr?$AAv?$AAe?$AAr?$AAT?$AAh?$AAr?$AAe?$AAa?$AAd?$AA?3?$AAG?$AAe?$AAt?$AAO?$AAv?$AAe?$AAr?$AAl?$AAa?$AAp?$AAp?$AAe?$AAd?$AAR?$AAe@ 10045020     PluginSrv.obj
 0002:00004090       ??_C@_1O@GNPNAMOC@?$AA0?$AAx?$AA?$CF?$AA0?$AA8?$AAX?$AA?$AA@ 10045090     SetEnvVar.obj
 0002:000040a0       ??_C@_1BE@GIIMEDBE@?$AAC?$AAo?$AAn?$AAE?$AAm?$AAu?$AAP?$AAI?$AAD?$AA?$AA@ 100450a0     SetEnvVar.obj
 0002:000040b4       ??_C@_15EFLNJKHH@?$AA?$CF?$AAu?$AA?$AA@ 100450b4     SetEnvVar.obj
 0002:000040bc       ??_C@_1BG@CJNOKBPK@?$AAC?$AAo?$AAn?$AAE?$AAm?$AAu?$AAH?$AAW?$AAN?$AAD?$AA?$AA@ 100450bc     SetEnvVar.obj
 0002:000040d4       ??_C@_1BO@DIAPFMAN@?$AAC?$AAo?$AAn?$AAE?$AAm?$AAu?$AAB?$AAa?$AAc?$AAk?$AAH?$AAW?$AAN?$AAD?$AA?$AA@ 100450d4     SetEnvVar.obj
 0002:000040f4       ??_C@_1BO@BBOAAODE@?$AAC?$AAo?$AAn?$AAE?$AAm?$AAu?$AAD?$AAr?$AAa?$AAw?$AAH?$AAW?$AAN?$AAD?$AA?$AA@ 100450f4     SetEnvVar.obj
 0002:00004114       ??_C@_1BM@PANMKOKH@?$AAC?$AAo?$AAn?$AAE?$AAm?$AAu?$AAI?$AAs?$AAA?$AAd?$AAm?$AAi?$AAn?$AA?$AA@ 10045114     SetEnvVar.obj
 0002:00004130       ??_C@_1M@FJLJMGED@?$AAA?$AAD?$AAM?$AAI?$AAN?$AA?$AA@ 10045130     SetEnvVar.obj
 0002:0000413c       ??_C@_1BI@ECBFAEFL@?$AAC?$AAo?$AAn?$AAE?$AAm?$AAu?$AAB?$AAu?$AAi?$AAl?$AAd?$AA?$AA@ 1004513c     SetEnvVar.obj
 0002:00004154       ??_C@_1CC@PJKOAMEK@?$AA?$CF?$AA0?$AA2?$AAu?$AA?$CF?$AA0?$AA2?$AAu?$AA?$CF?$AA0?$AA2?$AAu?$AA?$CF?$AAs?$AA?$CF?$AAs?$AA?$AA@ 10045154     SetEnvVar.obj
 0002:00004178       ??_C@_1BI@FFAFPMFK@?$AAC?$AAo?$AAn?$AAE?$AAm?$AAu?$AAD?$AAr?$AAi?$AAv?$AAe?$AA?$AA@ 10045178     SetEnvVar.obj
 0002:00004190       ??_C@_1CA@FHNKNCOM@?$AAC?$AAo?$AAn?$AAE?$AAm?$AAu?$AAW?$AAo?$AAr?$AAk?$AAD?$AAr?$AAi?$AAv?$AAe?$AA?$AA@ 10045190     SetEnvVar.obj
 0002:000041b0       ??_C@_1BM@BEHEOFPA@?$AAC?$AAo?$AAn?$AAE?$AAm?$AAu?$AAW?$AAo?$AAr?$AAk?$AAD?$AAi?$AAr?$AA?$AA@ 100451b0     SetEnvVar.obj
 0002:000041cc       ?ConsoleSectionSize@ConsoleSectionHelper@@2IB 100451cc     WConsole.obj
 0002:000041d0       ??_C@_1EA@DNEBDKPD@?$AAC?$AAa?$AAn?$AA?8?$AAt?$AA?5?$AAM?$AAa?$AAp?$AAV?$AAi?$AAe?$AAw?$AAO?$AAf?$AAF?$AAi?$AAl?$AAe?$AA?4?$AA?5?$AAE?$AAr?$AAr?$AAC?$AAo?$AAd?$AAe?$AA?$DN?$AA?$CF?$AAi?$AA?$AA@ 100451d0     WConsole.obj
 0002:00004210       ??_C@_1FM@HGFGNGE@?$AAC?$AAa?$AAn?$AA?8?$AAt?$AA?5?$AAC?$AAr?$AAe?$AAa?$AAt?$AAe?$AAF?$AAi?$AAl?$AAe?$AAM?$AAa?$AAp?$AAp?$AAi?$AAn?$AAg?$AA?$CI?$AAh?$AAS?$AAe?$AAc?$AAt?$AAi?$AAo?$AAn@ 10045210     WConsole.obj
 0002:0000426c       ??_C@_0BN@BJODIFNA@GetConsoleScreenBufferInfoEx?$AA@ 1004526c     WConsole.obj
 0002:0000428c       ??_C@_0BN@MIEFGKAE@SetConsoleScreenBufferInfoEx?$AA@ 1004528c     WConsole.obj
 0002:000042ac       ??_C@_0BI@OEHNMHCG@GetCurrentConsoleFontEx?$AA@ 100452ac     WConsole.obj
 0002:000042c4       ??_C@_0BI@PCBACGEE@SetCurrentConsoleFontEx?$AA@ 100452c4     WConsole.obj
 0002:000042dc       ??_C@_1CO@DAOCNAIJ@?$AAN?$AAu?$AAm?$AAb?$AAe?$AAr?$AAO?$AAf?$AAH?$AAi?$AAs?$AAt?$AAo?$AAr?$AAy?$AAB?$AAu?$AAf?$AAf?$AAe?$AAr?$AAs?$AA?$AA@ 100452dc     WConsole.obj
 0002:0000430c       ??_C@_1CE@BJHMHGLF@?$AAH?$AAi?$AAs?$AAt?$AAo?$AAr?$AAy?$AAB?$AAu?$AAf?$AAf?$AAe?$AAr?$AAS?$AAi?$AAz?$AAe?$AA?$AA@ 1004530c     WConsole.obj
 0002:00004330       ??_C@_1BO@IPFLJP@?$AAC?$AAo?$AAn?$AAs?$AAo?$AAl?$AAe?$AA?2?$AAC?$AAo?$AAn?$AAE?$AAm?$AAu?$AA?$AA@ 10045330     WConsole.obj
 0002:00004350       ??_C@_0BI@EJMIKHPD@GetConsoleSelectionInfo?$AA@ 10045350     WConsole.obj
 0002:00004368       ??_C@_13PJJBFPED@?$AA?$DL?$AA?$AA@ 10045368     WFiles.obj
 0002:0000436c       ??_C@_19GJLMFMHF@?$AA?4?$AAs?$AAv?$AAn?$AA?$AA@ 1004536c     WFiles.obj
 0002:00004378       ??_C@_19FMGJGEBB@?$AA?4?$AAg?$AAi?$AAt?$AA?$AA@ 10045378     WFiles.obj
 0002:00004384       ??_C@_13BBDEGPLJ@?$AA?$CK?$AA?$AA@ 10045384     WFiles.obj
 0002:00004388       ??_C@_0BE@MABCBIBH@CancelSynchronousIo?$AA@ 10045388     WFiles.obj
 0002:0000439c       ??_C@_1BK@EJBALEBG@?$AAK?$AAe?$AAr?$AAn?$AAe?$AAl?$AA3?$AA2?$AA?4?$AAd?$AAl?$AAl?$AA?$AA@ 1004539c     WFiles.obj
 0002:000043b8       ??_C@_1BK@ENAOCENB@?$AAZ?$AAo?$AAn?$AAe?$AAT?$AAr?$AAa?$AAn?$AAs?$AAf?$AAe?$AAr?$AA?$AA@ 100453b8     WFiles.obj
 0002:000043d4       ??_C@_1O@EKIIMFKL@?$AAZ?$AAo?$AAn?$AAe?$AAI?$AAd?$AA?$AA@ 100453d4     WFiles.obj
 0002:000043e4       ??_C@_1CC@DLHEMPJK@?$AA?3?$AAZ?$AAo?$AAn?$AAe?$AA?4?$AAI?$AAd?$AAe?$AAn?$AAt?$AAi?$AAf?$AAi?$AAe?$AAr?$AA?$AA@ 100453e4     WFiles.obj
 0002:00004408       ??_C@_1BE@GJOFHIHD@?$AAn?$AAt?$AAd?$AAl?$AAl?$AA?4?$AAd?$AAl?$AAl?$AA?$AA@ 10045408     WModuleCheck.obj
 0002:0000441c       ??_C@_1BM@PHJIAKGA@?$AAS?$AAo?$AAf?$AAt?$AAw?$AAa?$AAr?$AAe?$AA?2?$AAW?$AAi?$AAn?$AAe?$AA?$AA@ 1004541c     WObjects.obj
 0002:00004438       ??_C@_1FI@LJIDBGHG@?$AAS?$AAy?$AAs?$AAt?$AAe?$AAm?$AA?2?$AAC?$AAu?$AAr?$AAr?$AAe?$AAn?$AAt?$AAC?$AAo?$AAn?$AAt?$AAr?$AAo?$AAl?$AAS?$AAe?$AAt?$AA?2?$AAC?$AAo?$AAn?$AAt?$AAr?$AAo?$AAl@ 10045438     WObjects.obj
 0002:00004490       ??_C@_1FA@IMIIAJJK@?$AAS?$AAy?$AAs?$AAt?$AAe?$AAm?$AA?2?$AAC?$AAu?$AAr?$AAr?$AAe?$AAn?$AAt?$AAC?$AAo?$AAn?$AAt?$AAr?$AAo?$AAl?$AAS?$AAe?$AAt?$AA?2?$AAC?$AAo?$AAn?$AAt?$AAr?$AAo?$AAl@ 10045490     WObjects.obj
 0002:000044e0       ??_C@_0BE@HBINFEMB@FreeMemoryJobObject?$AA@ 100454e0     WObjects.obj
 0002:000044f4       ??_C@_0P@LKABJJMO@IsWow64Process?$AA@ 100454f4     WObjects.obj
 0002:00004504       ??_C@_1BI@ONABKHKJ@?$AA?4?$AAv?$AAs?$AAh?$AAo?$AAs?$AAt?$AA?4?$AAe?$AAx?$AAe?$AA?$AA@ 10045504     WObjects.obj
 0002:0000451c       ??_C@_1BA@KEPCCGNM@?$AAg?$AAd?$AAb?$AA?4?$AAe?$AAx?$AAe?$AA?$AA@ 1004551c     WObjects.obj
 0002:0000452c       ??_C@_13EJFHHPOP@?$AA?$CF?$AA?$AA@ 1004552c     WObjects.obj
 0002:00004530       ??_C@_1CE@ECCAMEKN@?$AA?2?$AAS?$AAy?$AAs?$AAW?$AAO?$AAW?$AA6?$AA4?$AA?2?$AAc?$AAm?$AAd?$AA?4?$AAe?$AAx?$AAe?$AA?$AA@ 10045530     WObjects.obj
 0002:00004554       ??_C@_1CC@PDLBBEEF@?$AAS?$AAy?$AAs?$AAW?$AAO?$AAW?$AA6?$AA4?$AA?2?$AAc?$AAm?$AAd?$AA?4?$AAe?$AAx?$AAe?$AA?$AA@ 10045554     WObjects.obj
 0002:00004578       ??_C@_1CE@PMNGKNKL@?$AA?2?$AAS?$AAy?$AAs?$AAt?$AAe?$AAm?$AA3?$AA2?$AA?2?$AAc?$AAm?$AAd?$AA?4?$AAe?$AAx?$AAe?$AA?$AA@ 10045578     WObjects.obj
 0002:0000459c       ??_C@_1CC@ENEHHNED@?$AAS?$AAy?$AAs?$AAt?$AAe?$AAm?$AA3?$AA2?$AA?2?$AAc?$AAm?$AAd?$AA?4?$AAe?$AAx?$AAe?$AA?$AA@ 1004559c     WObjects.obj
 0002:000045c0       ??_C@_1BA@PHJPMKEE@?$AAC?$AAo?$AAm?$AAS?$AAp?$AAe?$AAc?$AA?$AA@ 100455c0     WObjects.obj
 0002:000045d0       ??_C@_1CK@OLMGMMDO@?$AAC?$AAo?$AAn?$AAE?$AAm?$AAu?$AAS?$AAl?$AAe?$AAe?$AAp?$AAI?$AAn?$AAd?$AAi?$AAc?$AAa?$AAt?$AAo?$AAr?$AA?$AA@ 100455d0     WObjects.obj
 0002:000045fc       ??_C@_1BC@HBINJLDK@?$AA?0?$AA?4?$AA?3?$AA?$DL?$AA?5?$AA?7?$AA?$AN?$AA?6?$AA?$AA@ 100455fc     WObjects.obj
 0002:00004610       ??_C@_17CGDCDLG@?$AAo?$AAe?$AAm?$AA?$AA@ 10045610     WObjects.obj
 0002:00004618       ??_C@_1M@EHJDGNNP@?$AAo?$AAe?$AAm?$AAc?$AAp?$AA?$AA@ 10045618     WObjects.obj
 0002:00004624       ??_C@_17GDMDFNNL@?$AAa?$AAc?$AAp?$AA?$AA@ 10045624     WObjects.obj
 0002:0000462c       ??_C@_19CMKJINKI@?$AAa?$AAn?$AAs?$AAi?$AA?$AA@ 1004562c     WObjects.obj
 0002:00004638       ??_C@_1O@MJHAAPBC@?$AAa?$AAn?$AAs?$AAi?$AAc?$AAp?$AA?$AA@ 10045638     WObjects.obj
 0002:00004648       ??_C@_19MPDNHKDG@?$AAu?$AAt?$AAf?$AA8?$AA?$AA@ 10045648     WObjects.obj
 0002:00004654       ??_C@_1M@FPEIIFAM@?$AAu?$AAt?$AAf?$AA?9?$AA8?$AA?$AA@ 10045654     WObjects.obj
 0002:00004660       ??_C@_05LCABBMOG@?$CFs?3?$CFi?$AA@ 10045660     WThreads.obj
 0002:00004668       ??_C@_1CI@LEBALGEL@?$AA0?$AAx?$AA?$CF?$AA0?$AA8?$AAX?$AA?3?$AA?5?$AA?$CF?$AAs?$AA?5?$AA?9?$AA?5?$AA?8?$AA?$CF?$AAs?$AA?8?$AA?$CF?$AAs?$AA?$AA@ 10045668     WUser.obj
 0002:00004690       ??_C@_1BG@FPBBIDMH@?$AA?5?$AA?9?$AA?5?$AA?$CF?$AAs?$AA?5?$AA?$FL?$AA?$CF?$AAu?$AA?$FN?$AA?$AA@ 10045690     WUser.obj
 0002:000046a8       ??_C@_1CM@FCHOBPGC@?$AA?$DM?$AAG?$AAe?$AAt?$AAC?$AAl?$AAa?$AAs?$AAs?$AAN?$AAa?$AAm?$AAe?$AA?5?$AAf?$AAa?$AAi?$AAl?$AAe?$AAd?$AA?$DO?$AA?$AA@ 100456a8     WUser.obj
 0002:000046d4       ??_C@_1DM@LIIMLPNP@?$AA0?$AAx?$AA?$CF?$AA0?$AA8?$AAX?$AA?3?$AA?5?$AAI?$AAn?$AAv?$AAa?$AAl?$AAi?$AAd?$AA?5?$AAw?$AAi?$AAn?$AAd?$AAo?$AAw?$AA?5?$AAh?$AAa?$AAn?$AAd?$AAl?$AAe?$AA?$AA@ 100456d4     WUser.obj
 0002:00004710       ??_C@_1O@DPFEOIGE@?$AA?$DM?$AAN?$AAU?$AAL?$AAL?$AA?$DO?$AA?$AA@ 10045710     WUser.obj
 0002:00004720       ??_C@_1FA@BFJDIMLC@?$AAC?$AA?3?$AA?2?$AAP?$AAr?$AAo?$AAg?$AAr?$AAa?$AAm?$AA?5?$AAF?$AAi?$AAl?$AAe?$AAs?$AA?2?$AAJ?$AAP?$AAS?$AAo?$AAf?$AAt?$AA?2?$AAT?$AAC?$AAC?$AAL?$AAE?$AA1?$AA3?$AA?2@ 10045720     WUser.obj
 0002:00004770       ??_C@_1EO@GBOKIPHE@?$AAC?$AA?3?$AA?2?$AAP?$AAr?$AAo?$AAg?$AAr?$AAa?$AAm?$AA?5?$AAF?$AAi?$AAl?$AAe?$AAs?$AA?2?$AAJ?$AAP?$AAS?$AAo?$AAf?$AAt?$AA?2?$AAT?$AAC?$AAM?$AAD?$AA1?$AA3?$AA?2?$AAt@ 10045770     WUser.obj
 0002:000047c0       ??_C@_1CA@CBMLAMC@?$AAI?$AAn?$AAs?$AAt?$AAa?$AAl?$AAl?$AAL?$AAo?$AAc?$AAa?$AAt?$AAi?$AAo?$AAn?$AA?$AA@ 100457c0     WUser.obj
 0002:000047e0       ??_C@_1BI@NAAHPGNK@?$AAJ?$AAP?$AA?5?$AAS?$AAo?$AAf?$AAt?$AAw?$AAa?$AAr?$AAe?$AA?$AA@ 100457e0     WUser.obj
 0002:000047f8       ??_C@_1BE@CCMLAJPM@?$AAP?$AAu?$AAb?$AAl?$AAi?$AAs?$AAh?$AAe?$AAr?$AA?$AA@ 100457f8     WUser.obj
 0002:00004810       ??_C@_1GI@BAAGFBH@?$AAS?$AAO?$AAF?$AAT?$AAW?$AAA?$AAR?$AAE?$AA?2?$AAM?$AAi?$AAc?$AAr?$AAo?$AAs?$AAo?$AAf?$AAt?$AA?2?$AAW?$AAi?$AAn?$AAd?$AAo?$AAw?$AAs?$AA?2?$AAC?$AAu?$AAr?$AAr?$AAe@ 10045810     WUser.obj
 0002:00004878       ??_C@_1BE@BGAOJFLF@?$AA?2?$AAt?$AAc?$AAm?$AAd?$AA?4?$AAe?$AAx?$AAe?$AA?$AA@ 10045878     WUser.obj
 0002:0000488c       ??_C@_19NHABCBNP@?$AAP?$AAa?$AAt?$AAh?$AA?$AA@ 1004588c     WUser.obj
 0002:00004898       ??_C@_1CK@HMKJOJBO@?$AAS?$AAO?$AAF?$AAT?$AAW?$AAA?$AAR?$AAE?$AA?2?$AAJ?$AAP?$AA?5?$AAS?$AAo?$AAf?$AAt?$AAw?$AAa?$AAr?$AAe?$AA?$AA@ 10045898     WUser.obj
 0002:000048c4       ??_C@_1DM@LBPENHOD@?$AA?$CF?$AAC?$AAo?$AAn?$AAE?$AAm?$AAu?$AAD?$AAi?$AAr?$AA?$CF?$AA?2?$AA?4?$AA?4?$AA?2?$AA?4?$AA?4?$AA?2?$AAt?$AAc?$AAc?$AA?2?$AAt?$AAc?$AAc?$AA?4?$AAe?$AAx?$AAe?$AA?$AA@ 100458c4     WUser.obj
 0002:00004900       ??_C@_1DG@KKKDJMJH@?$AA?$CF?$AAC?$AAo?$AAn?$AAE?$AAm?$AAu?$AAD?$AAi?$AAr?$AA?$CF?$AA?2?$AA?4?$AA?4?$AA?2?$AAt?$AAc?$AAc?$AA?2?$AAt?$AAc?$AAc?$AA?4?$AAe?$AAx?$AAe?$AA?$AA@ 10045900     WUser.obj
 0002:00004938       ??_C@_1CI@HDMJOOBM@?$AA?$CF?$AAC?$AAo?$AAn?$AAE?$AAm?$AAu?$AAD?$AAi?$AAr?$AA?$CF?$AA?2?$AAt?$AAc?$AAc?$AA?4?$AAe?$AAx?$AAe?$AA?$AA@ 10045938     WUser.obj
 0002:00004960       ??_C@_1DA@EMHAGABM@?$AA?$CF?$AAC?$AAo?$AAn?$AAE?$AAm?$AAu?$AAB?$AAa?$AAs?$AAe?$AAD?$AAi?$AAr?$AA?$CF?$AA?2?$AAt?$AAc?$AAc?$AA?4?$AAe?$AAx?$AAe?$AA?$AA@ 10045960     WUser.obj
 0002:00004990       ?ProcessDetach@NativeDll@<CrtImplementationDetails>@@0IB 10045990     LIBCMT:wcstol.obj
 0002:00004994       ?ProcessAttach@NativeDll@<CrtImplementationDetails>@@0IB 10045994     LIBCMT:wcstol.obj
 0002:00004998       ?ThreadAttach@NativeDll@<CrtImplementationDetails>@@0IB 10045998     LIBCMT:wcstol.obj
 0002:0000499c       ?ThreadDetach@NativeDll@<CrtImplementationDetails>@@0IB 1004599c     LIBCMT:wcstol.obj
 0002:000049a0       ?ProcessVerifier@NativeDll@<CrtImplementationDetails>@@0IB 100459a0     LIBCMT:wcstol.obj
 0002:000049a4       __pRawDllMain              100459a4     LIBCMT:dllcrt0.obj
 0002:000049a4       __pDefaultRawDllMain       100459a4     LIBCMT:dllcrt0.obj
 0002:000049a8       ??_C@_0P@GGKDKEEG@runtime?5error?5?$AA@ 100459a8     LIBCMT:crt0msg.obj
 0002:000049b8       ??_C@_02PCIJFNDE@?$AN?6?$AA@ 100459b8     LIBCMT:crt0msg.obj
 0002:000049bc       ??_C@_0O@MJNIPGOH@TLOSS?5error?$AN?6?$AA@ 100459bc     LIBCMT:crt0msg.obj
 0002:000049cc       ??_C@_0N@BONNPDHF@SING?5error?$AN?6?$AA@ 100459cc     LIBCMT:crt0msg.obj
 0002:000049dc       ??_C@_0P@MBDAJNE@DOMAIN?5error?$AN?6?$AA@ 100459dc     LIBCMT:crt0msg.obj
 0002:000049f0       ??_C@_0JL@DFDOOABL@R6034?$AN?6An?5application?5has?5made?5a@ 100459f0     LIBCMT:crt0msg.obj
 0002:00004a90       ??_C@_0PH@EPAFIJ@R6033?$AN?6?9?5Attempt?5to?5use?5MSIL?5cod@ 10045a90     LIBCMT:crt0msg.obj
 0002:00004b88       ??_C@_0DD@BKEEABMM@R6032?$AN?6?9?5not?5enough?5space?5for?5lo@ 10045b88     LIBCMT:crt0msg.obj
 0002:00004bc0       ??_C@_0GD@OFKILIED@R6031?$AN?6?9?5Attempt?5to?5initialize?5t@ 10045bc0     LIBCMT:crt0msg.obj
 0002:00004c24       ??_C@_0BP@LPMHJOKI@R6030?$AN?6?9?5CRT?5not?5initialized?$AN?6?$AA@ 10045c24     LIBCMT:crt0msg.obj
 0002:00004c44       ??_C@_0CF@KJDAIALP@R6028?$AN?6?9?5unable?5to?5initialize?5he@ 10045c44     LIBCMT:crt0msg.obj
 0002:00004c6c       ??_C@_0DF@GAKBPDFP@R6027?$AN?6?9?5not?5enough?5space?5for?5lo@ 10045c6c     LIBCMT:crt0msg.obj
 0002:00004ca4       ??_C@_0DF@IBLNNAIG@R6026?$AN?6?9?5not?5enough?5space?5for?5st@ 10045ca4     LIBCMT:crt0msg.obj
 0002:00004cdc       ??_C@_0CG@IOHKGFNJ@R6025?$AN?6?9?5pure?5virtual?5function?5c@ 10045cdc     LIBCMT:crt0msg.obj
 0002:00004d04       ??_C@_0DF@JIJJFJDC@R6024?$AN?6?9?5not?5enough?5space?5for?5_o@ 10045d04     LIBCMT:crt0msg.obj
 0002:00004d3c       ??_C@_0CJ@EGEJHFME@R6019?$AN?6?9?5unable?5to?5open?5console?5@ 10045d3c     LIBCMT:crt0msg.obj
 0002:00004d68       ??_C@_0CB@GNHNIELH@R6018?$AN?6?9?5unexpected?5heap?5error?$AN?6@ 10045d68     LIBCMT:crt0msg.obj
 0002:00004d8c       ??_C@_0CN@FOLDKNG@R6017?$AN?6?9?5unexpected?5multithread?5@ 10045d8c     LIBCMT:crt0msg.obj
 0002:00004dbc       ??_C@_0CM@FAHFJNHO@R6016?$AN?6?9?5not?5enough?5space?5for?5th@ 10045dbc     LIBCMT:crt0msg.obj
 0002:00004de8       ??_C@_0JG@LBKMGKLD@?$AN?6This?5application?5has?5requested@ 10045de8     LIBCMT:crt0msg.obj
 0002:00004e80       ??_C@_0CM@FLCNIPKK@R6009?$AN?6?9?5not?5enough?5space?5for?5en@ 10045e80     LIBCMT:crt0msg.obj
 0002:00004eac       ??_C@_0CK@KMMJOAPP@R6008?$AN?6?9?5not?5enough?5space?5for?5ar@ 10045eac     LIBCMT:crt0msg.obj
 0002:00004ed8       ??_C@_0CN@LEKKICBM@R6002?$AN?6?9?5floating?5point?5support?5@ 10045ed8     LIBCMT:crt0msg.obj
 0002:00004f08       ??_C@_0CF@GOGNBNAK@Microsoft?5Visual?5C?$CL?$CL?5Runtime?5Lib@ 10045f08     LIBCMT:crt0msg.obj
 0002:00004f30       ??_C@_02PHMGELLB@?6?6?$AA@ 10045f30     LIBCMT:crt0msg.obj
 0002:00004f34       ??_C@_03KHICJKCI@?4?4?4?$AA@ 10045f34     LIBCMT:crt0msg.obj
 0002:00004f38       ??_C@_0BH@DNAGHKFM@?$DMprogram?5name?5unknown?$DO?$AA@ 10045f38     LIBCMT:crt0msg.obj
 0002:00004f50       ??_C@_0BK@OFGJDLJJ@Runtime?5Error?$CB?6?6Program?3?5?$AA@ 10045f50     LIBCMT:crt0msg.obj
 0002:00004f6c       ??_C@_0O@NLDKAIKN@EncodePointer?$AA@ 10045f6c     LIBCMT:tidtable.obj
 0002:00004f7c       ??_C@_1BK@DBDEIDLH@?$AAK?$AAE?$AAR?$AAN?$AAE?$AAL?$AA3?$AA2?$AA?4?$AAD?$AAL?$AAL?$AA?$AA@ 10045f7c     LIBCMT:tidtable.obj
 0002:00004f98       ??_C@_0O@KBPMFGHI@DecodePointer?$AA@ 10045f98     LIBCMT:tidtable.obj
 0002:00004fa8       ??_C@_07PEJMOBNF@FlsFree?$AA@ 10045fa8     LIBCMT:tidtable.obj
 0002:00004fb0       ??_C@_0M@JCPCPOEF@FlsSetValue?$AA@ 10045fb0     LIBCMT:tidtable.obj
 0002:00004fbc       ??_C@_0M@GDNOONDI@FlsGetValue?$AA@ 10045fbc     LIBCMT:tidtable.obj
 0002:00004fc8       ??_C@_08KNHFBNJ@FlsAlloc?$AA@ 10045fc8     LIBCMT:tidtable.obj
 0002:00004fd4       ??_C@_07LCBHPJJN@LC_TIME?$AA@ 10045fd4     LIBCMT:setlocal.obj
 0002:00004fdc       ??_C@_0L@DLHIECNL@LC_NUMERIC?$AA@ 10045fdc     LIBCMT:setlocal.obj
 0002:00004fe8       ??_C@_0M@MIENIKLA@LC_MONETARY?$AA@ 10045fe8     LIBCMT:setlocal.obj
 0002:00004ff4       ??_C@_08EADHIDAD@LC_CTYPE?$AA@ 10045ff4     LIBCMT:setlocal.obj
 0002:00005000       ??_C@_0L@KFJHEKIK@LC_COLLATE?$AA@ 10046000     LIBCMT:setlocal.obj
 0002:0000500c       ??_C@_06NEFDFEKB@LC_ALL?$AA@ 1004600c     LIBCMT:setlocal.obj
 0002:00005018       ___lc_category             10046018     LIBCMT:setlocal.obj
 0002:000050e0       ??_C@_03EGDHDPFD@_?4?0?$AA@ 100460e0     LIBCMT:setlocal.obj
 0002:000050e4       ??_C@_01LFCBOECM@?4?$AA@   100460e4     LIBCMT:setlocal.obj
 0002:000050e8       ??_C@_01IDAFKMJL@_?$AA@    100460e8     LIBCMT:setlocal.obj
 0002:000050ec       ??_C@_01ICJEACDI@?$DL?$AA@ 100460ec     LIBCMT:setlocal.obj
 0002:000050f0       ??_C@_01NEMOKFLO@?$DN?$AA@ 100460f0     LIBCMT:setlocal.obj
 0002:000050f4       ??_C@_01GFHCPBMG@C?$AA@    100460f4     LIBCMT:setlocal.obj
 0002:000050f8       ??_C@_02BALPLPBG@?$DN?$DL?$AA@ 100460f8     LIBCMT:setlocal.obj
 0002:000050fc       ??_C@_0P@MIGLKIOC@CorExitProcess?$AA@ 100460fc     LIBCMT:crt0dat.obj
 0002:0000510c       ??_C@_1BI@BGOHAHKC@?$AAm?$AAs?$AAc?$AAo?$AAr?$AAe?$AAe?$AA?4?$AAd?$AAl?$AAl?$AA?$AA@ 1004610c     LIBCMT:crt0dat.obj
 0002:00005128       __XcptActTab               10046128     LIBCMT:winxfltr.obj
 0002:000051a0       ??_C@_0BI@DFKBFLJE@GetProcessWindowStation?$AA@ 100461a0     LIBCMT:crtmbox.obj
 0002:000051b8       ??_C@_0BK@CIDNPOGP@GetUserObjectInformationA?$AA@ 100461b8     LIBCMT:crtmbox.obj
 0002:000051d4       ??_C@_0BD@HHGDFDBJ@GetLastActivePopup?$AA@ 100461d4     LIBCMT:crtmbox.obj
 0002:000051e8       ??_C@_0BA@HNOPNCHB@GetActiveWindow?$AA@ 100461e8     LIBCMT:crtmbox.obj
 0002:000051f8       ??_C@_0M@CHKKJDAI@MessageBoxA?$AA@ 100461f8     LIBCMT:crtmbox.obj
 0002:00005204       ??_C@_0L@NDEGIDAG@USER32?4DLL?$AA@ 10046204     LIBCMT:crtmbox.obj
 0002:00005210       ??_C@_13NOLLCAOD@?$AA?$AA?$AA?$AA@ 10046210     LIBCMT:a_map.obj
 0002:00005218       ___newctype                10046218     LIBCMT:ctype.obj
 0002:00005518       __wctype                   10046518     LIBCMT:ctype.obj
 0002:00005720       ___newclmap                10046720     LIBCMT:ctype.obj
 0002:000058a0       ___newcumap                100468a0     LIBCMT:ctype.obj
 0002:00005a20       ??_C@_08JCCMCCIL@HH?3mm?3ss?$AA@ 10046a20     LIBCMT:strftime.obj
 0002:00005a2c       ??_C@_0BE@CKGJFCPC@dddd?0?5MMMM?5dd?0?5yyyy?$AA@ 10046a2c     LIBCMT:strftime.obj
 0002:00005a40       ??_C@_08BPBNCDIB@MM?1dd?1yy?$AA@ 10046a40     LIBCMT:strftime.obj
 0002:00005a4c       ??_C@_02CJNFDJBF@PM?$AA@   10046a4c     LIBCMT:strftime.obj
 0002:00005a50       ??_C@_02DEDBPAFC@AM?$AA@   10046a50     LIBCMT:strftime.obj
 0002:00005a54       ??_C@_08EDHMEBNP@December?$AA@ 10046a54     LIBCMT:strftime.obj
 0002:00005a60       ??_C@_08HCHEGEOA@November?$AA@ 10046a60     LIBCMT:strftime.obj
 0002:00005a6c       ??_C@_07JJNFCEND@October?$AA@ 10046a6c     LIBCMT:strftime.obj
 0002:00005a74       ??_C@_09BHHEALKD@September?$AA@ 10046a74     LIBCMT:strftime.obj
 0002:00005a80       ??_C@_06LBBHFDDG@August?$AA@ 10046a80     LIBCMT:strftime.obj
 0002:00005a88       ??_C@_04MIEPOIFP@July?$AA@ 10046a88     LIBCMT:strftime.obj
 0002:00005a90       ??_C@_04CNLMGBGM@June?$AA@ 10046a90     LIBCMT:strftime.obj
 0002:00005a98       ??_C@_05DMJDNLEJ@April?$AA@ 10046a98     LIBCMT:strftime.obj
 0002:00005aa0       ??_C@_05HPCKOFNC@March?$AA@ 10046aa0     LIBCMT:strftime.obj
 0002:00005aa8       ??_C@_08GNJGEPFN@February?$AA@ 10046aa8     LIBCMT:strftime.obj
 0002:00005ab4       ??_C@_07CGJPFGJA@January?$AA@ 10046ab4     LIBCMT:strftime.obj
 0002:00005abc       ??_C@_03MKABNOCG@Dec?$AA@  10046abc     LIBCMT:strftime.obj
 0002:00005ac0       ??_C@_03JPJOFNIA@Nov?$AA@  10046ac0     LIBCMT:strftime.obj
 0002:00005ac4       ??_C@_03BMAOKBAD@Oct?$AA@  10046ac4     LIBCMT:strftime.obj
 0002:00005ac8       ??_C@_03GGCAPAJC@Sep?$AA@  10046ac8     LIBCMT:strftime.obj
 0002:00005acc       ??_C@_03IFJFEIGA@Aug?$AA@  10046acc     LIBCMT:strftime.obj
 0002:00005ad0       ??_C@_03LBGABGKK@Jul?$AA@  10046ad0     LIBCMT:strftime.obj
 0002:00005ad4       ??_C@_03IDFGHECI@Jun?$AA@  10046ad4     LIBCMT:strftime.obj
 0002:00005ad8       ??_C@_03CNMDKL@May?$AA@    10046ad8     LIBCMT:strftime.obj
 0002:00005adc       ??_C@_03LEOLGMJP@Apr?$AA@  10046adc     LIBCMT:strftime.obj
 0002:00005ae0       ??_C@_03ODNJBKGA@Mar?$AA@  10046ae0     LIBCMT:strftime.obj
 0002:00005ae4       ??_C@_03HJBDCHOM@Feb?$AA@  10046ae4     LIBCMT:strftime.obj
 0002:00005ae8       ??_C@_03JIHJHPIE@Jan?$AA@  10046ae8     LIBCMT:strftime.obj
 0002:00005aec       ??_C@_08INBOOONO@Saturday?$AA@ 10046aec     LIBCMT:strftime.obj
 0002:00005af8       ??_C@_06JECMNKMI@Friday?$AA@ 10046af8     LIBCMT:strftime.obj
 0002:00005b00       ??_C@_08HACCIKIA@Thursday?$AA@ 10046b00     LIBCMT:strftime.obj
 0002:00005b0c       ??_C@_09DLIGFAKA@Wednesday?$AA@ 10046b0c     LIBCMT:strftime.obj
 0002:00005b18       ??_C@_07BAAGCFCM@Tuesday?$AA@ 10046b18     LIBCMT:strftime.obj
 0002:00005b20       ??_C@_06JLEDEDGH@Monday?$AA@ 10046b20     LIBCMT:strftime.obj
 0002:00005b28       ??_C@_06OOPIFAJ@Sunday?$AA@ 10046b28     LIBCMT:strftime.obj
 0002:00005b30       ??_C@_03FEFJNEK@Sat?$AA@   10046b30     LIBCMT:strftime.obj
 0002:00005b34       ??_C@_03IDIOELNC@Fri?$AA@  10046b34     LIBCMT:strftime.obj
 0002:00005b38       ??_C@_03IOFIKPDN@Thu?$AA@  10046b38     LIBCMT:strftime.obj
 0002:00005b3c       ??_C@_03MHOMLAJA@Wed?$AA@  10046b3c     LIBCMT:strftime.obj
 0002:00005b40       ??_C@_03NAGEINEP@Tue?$AA@  10046b40     LIBCMT:strftime.obj
 0002:00005b44       ??_C@_03PDAGKDH@Mon?$AA@   10046b44     LIBCMT:strftime.obj
 0002:00005b48       ??_C@_03KOEHGMDN@Sun?$AA@  10046b48     LIBCMT:strftime.obj
 0002:00005b4c       ??_C@_03EBAPMIKO@a?1p?$AA@ 10046b4c     LIBCMT:strftime.obj
 0002:00005b50       ??_C@_05JAMEPDIN@am?1pm?$AA@ 10046b50     LIBCMT:strftime.obj
 0002:00005b58       ??_C@_0O@FMJNFNKE@united?9states?$AA@ 10046b58     LIBCMT:getqloc.obj
 0002:00005b68       ??_C@_0P@NDHFFKCA@united?9kingdom?$AA@ 10046b68     LIBCMT:getqloc.obj
 0002:00005b78       ??_C@_0BC@HHDADLGF@trinidad?5?$CG?5tobago?$AA@ 10046b78     LIBCMT:getqloc.obj
 0002:00005b8c       ??_C@_0M@IOAEBDAC@south?9korea?$AA@ 10046b8c     LIBCMT:getqloc.obj
 0002:00005b98       ??_C@_0N@FIELFKIJ@south?9africa?$AA@ 10046b98     LIBCMT:getqloc.obj
 0002:00005ba8       ??_C@_0M@OPNDHCMC@south?5korea?$AA@ 10046ba8     LIBCMT:getqloc.obj
 0002:00005bb4       ??_C@_0N@MDEOEPFI@south?5africa?$AA@ 10046bb4     LIBCMT:getqloc.obj
 0002:00005bc4       ??_C@_06FKAPCJLB@slovak?$AA@ 10046bc4     LIBCMT:getqloc.obj
 0002:00005bcc       ??_C@_0M@EFJANOAL@puerto?9rico?$AA@ 10046bcc     LIBCMT:getqloc.obj
 0002:00005bd8       ??_C@_08PGOJKDAI@pr?9china?$AA@ 10046bd8     LIBCMT:getqloc.obj
 0002:00005be4       ??_C@_08JHDOMCMI@pr?5china?$AA@ 10046be4     LIBCMT:getqloc.obj
 0002:00005bf0       ??_C@_02JHCHFBLL@nz?$AA@   10046bf0     LIBCMT:getqloc.obj
 0002:00005bf4       ??_C@_0M@LINHDHKP@new?9zealand?$AA@ 10046bf4     LIBCMT:getqloc.obj
 0002:00005c00       ??_C@_09IIIPPBDB@hong?9kong?$AA@ 10046c00     LIBCMT:getqloc.obj
 0002:00005c0c       ??_C@_07HJLCKBG@holland?$AA@ 10046c0c     LIBCMT:getqloc.obj
 0002:00005c14       ??_C@_0O@LEHGMHAG@great?5britain?$AA@ 10046c14     LIBCMT:getqloc.obj
 0002:00005c24       ??_C@_07FACOMELA@england?$AA@ 10046c24     LIBCMT:getqloc.obj
 0002:00005c2c       ??_C@_05JIHCEICB@czech?$AA@ 10046c2c     LIBCMT:getqloc.obj
 0002:00005c34       ??_C@_05BBJOBLGB@china?$AA@ 10046c34     LIBCMT:getqloc.obj
 0002:00005c3c       ??_C@_07GPKPHICP@britain?$AA@ 10046c3c     LIBCMT:getqloc.obj
 0002:00005c44       ??_C@_07MHIPBHMG@america?$AA@ 10046c44     LIBCMT:getqloc.obj
 0002:00005c4c       ??_C@_03KIALPMKC@usa?$AA@  10046c4c     LIBCMT:getqloc.obj
 0002:00005c50       ??_C@_02FGJGKGGD@us?$AA@   10046c50     LIBCMT:getqloc.obj
 0002:00005c54       ??_C@_02NEINDODK@uk?$AA@   10046c54     LIBCMT:getqloc.obj
 0002:00005c58       ??_C@_05JMPCFJFJ@swiss?$AA@ 10046c58     LIBCMT:getqloc.obj
 0002:00005c60       ??_C@_0BA@HLOCPIOD@swedish?9finland?$AA@ 10046c60     LIBCMT:getqloc.obj
 0002:00005c70       ??_C@_0BC@PKCNIABK@spanish?9venezuela?$AA@ 10046c70     LIBCMT:getqloc.obj
 0002:00005c84       ??_C@_0BA@GBHHMIJI@spanish?9uruguay?$AA@ 10046c84     LIBCMT:getqloc.obj
 0002:00005c94       ??_C@_0BE@BHDOHPMC@spanish?9puerto?5rico?$AA@ 10046c94     LIBCMT:getqloc.obj
 0002:00005ca8       ??_C@_0N@KMOIDGGN@spanish?9peru?$AA@ 10046ca8     LIBCMT:getqloc.obj
 0002:00005cb8       ??_C@_0BB@HMHLPGPH@spanish?9paraguay?$AA@ 10046cb8     LIBCMT:getqloc.obj
 0002:00005ccc       ??_C@_0P@MCPKNGFD@spanish?9panama?$AA@ 10046ccc     LIBCMT:getqloc.obj
 0002:00005cdc       ??_C@_0BC@IHOHGAIL@spanish?9nicaragua?$AA@ 10046cdc     LIBCMT:getqloc.obj
 0002:00005cf0       ??_C@_0P@KLMJDNFJ@spanish?9modern?$AA@ 10046cf0     LIBCMT:getqloc.obj
 0002:00005d00       ??_C@_0BA@BPAPGBCM@spanish?9mexican?$AA@ 10046d00     LIBCMT:getqloc.obj
 0002:00005d10       ??_C@_0BB@PDECHHHE@spanish?9honduras?$AA@ 10046d10     LIBCMT:getqloc.obj
 0002:00005d24       ??_C@_0BC@KLHKFGDB@spanish?9guatemala?$AA@ 10046d24     LIBCMT:getqloc.obj
 0002:00005d38       ??_C@_0BE@MFOOKJAI@spanish?9el?5salvador?$AA@ 10046d38     LIBCMT:getqloc.obj
 0002:00005d4c       ??_C@_0BA@FCOKFPFC@spanish?9ecuador?$AA@ 10046d4c     LIBCMT:getqloc.obj
 0002:00005d5c       ??_C@_0BL@PLMGIMOO@spanish?9dominican?5republic?$AA@ 10046d5c     LIBCMT:getqloc.obj
 0002:00005d78       ??_C@_0BD@HLGDNMHB@spanish?9costa?5rica?$AA@ 10046d78     LIBCMT:getqloc.obj
 0002:00005d8c       ??_C@_0BB@PKCBKCPE@spanish?9colombia?$AA@ 10046d8c     LIBCMT:getqloc.obj
 0002:00005da0       ??_C@_0O@MCBIJGNE@spanish?9chile?$AA@ 10046da0     LIBCMT:getqloc.obj
 0002:00005db0       ??_C@_0BA@BEFEIGJJ@spanish?9bolivia?$AA@ 10046db0     LIBCMT:getqloc.obj
 0002:00005dc0       ??_C@_0BC@EMECMPD@spanish?9argentina?$AA@ 10046dc0     LIBCMT:getqloc.obj
 0002:00005dd4       ??_C@_0BF@EALFLENP@portuguese?9brazilian?$AA@ 10046dd4     LIBCMT:getqloc.obj
 0002:00005dec       ??_C@_0BC@HBLEBLNN@norwegian?9nynorsk?$AA@ 10046dec     LIBCMT:getqloc.obj
 0002:00005e00       ??_C@_0BB@HMACDDCK@norwegian?9bokmal?$AA@ 10046e00     LIBCMT:getqloc.obj
 0002:00005e14       ??_C@_09BAFFPPHE@norwegian?$AA@ 10046e14     LIBCMT:getqloc.obj
 0002:00005e20       ??_C@_0O@EAJFJDFG@italian?9swiss?$AA@ 10046e20     LIBCMT:getqloc.obj
 0002:00005e30       ??_C@_0O@CNOMPGD@irish?9english?$AA@ 10046e30     LIBCMT:getqloc.obj
 0002:00005e40       ??_C@_0N@EDHBGCKG@german?9swiss?$AA@ 10046e40     LIBCMT:getqloc.obj
 0002:00005e50       ??_C@_0BC@JACMHNBP@german?9luxembourg?$AA@ 10046e50     LIBCMT:getqloc.obj
 0002:00005e64       ??_C@_0BE@HBGMGFEG@german?9lichtenstein?$AA@ 10046e64     LIBCMT:getqloc.obj
 0002:00005e78       ??_C@_0BA@HKKBIBKL@german?9austrian?$AA@ 10046e78     LIBCMT:getqloc.obj
 0002:00005e88       ??_C@_0N@GCAEPEBK@french?9swiss?$AA@ 10046e88     LIBCMT:getqloc.obj
 0002:00005e98       ??_C@_0BC@DJFJJCK@french?9luxembourg?$AA@ 10046e98     LIBCMT:getqloc.obj
 0002:00005eac       ??_C@_0BA@NNCEDFIC@french?9canadian?$AA@ 10046eac     LIBCMT:getqloc.obj
 0002:00005ebc       ??_C@_0P@CMPOCLM@french?9belgian?$AA@ 10046ebc     LIBCMT:getqloc.obj
 0002:00005ecc       ??_C@_0M@GHHDJOK@english?9usa?$AA@ 10046ecc     LIBCMT:getqloc.obj
 0002:00005ed8       ??_C@_0L@PLDJKEIL@english?9us?$AA@ 10046ed8     LIBCMT:getqloc.obj
 0002:00005ee4       ??_C@_0L@HJCCDMNC@english?9uk?$AA@ 10046ee4     LIBCMT:getqloc.obj
 0002:00005ef0       ??_C@_0BK@CKLIAGJB@english?9trinidad?5y?5tobago?$AA@ 10046ef0     LIBCMT:getqloc.obj
 0002:00005f0c       ??_C@_0BF@JMJMGNNF@english?9south?5africa?$AA@ 10046f0c     LIBCMT:getqloc.obj
 0002:00005f24       ??_C@_0L@DKIIFDFD@english?9nz?$AA@ 10046f24     LIBCMT:getqloc.obj
 0002:00005f30       ??_C@_0BA@ONHGJCLH@english?9jamaica?$AA@ 10046f30     LIBCMT:getqloc.obj
 0002:00005f40       ??_C@_0M@HJBGHOPO@english?9ire?$AA@ 10046f40     LIBCMT:getqloc.obj
 0002:00005f4c       ??_C@_0BC@LFEKMIFB@english?9caribbean?$AA@ 10046f4c     LIBCMT:getqloc.obj
 0002:00005f60       ??_C@_0M@OLDPFKHI@english?9can?$AA@ 10046f60     LIBCMT:getqloc.obj
 0002:00005f6c       ??_C@_0P@OMDEHBMP@english?9belize?$AA@ 10046f6c     LIBCMT:getqloc.obj
 0002:00005f7c       ??_C@_0M@KFHFPFED@english?9aus?$AA@ 10046f7c     LIBCMT:getqloc.obj
 0002:00005f88       ??_C@_0BB@MNMBKDFE@english?9american?$AA@ 10046f88     LIBCMT:getqloc.obj
 0002:00005f9c       ??_C@_0O@KIDLNNBA@dutch?9belgian?$AA@ 10046f9c     LIBCMT:getqloc.obj
 0002:00005fac       ??_C@_0BE@JBKABBMH@chinese?9traditional?$AA@ 10046fac     LIBCMT:getqloc.obj
 0002:00005fc0       ??_C@_0BC@MJJMPKCG@chinese?9singapore?$AA@ 10046fc0     LIBCMT:getqloc.obj
 0002:00005fd4       ??_C@_0BD@FDKADDCP@chinese?9simplified?$AA@ 10046fd4     LIBCMT:getqloc.obj
 0002:00005fe8       ??_C@_0BB@DBEFDDME@chinese?9hongkong?$AA@ 10046fe8     LIBCMT:getqloc.obj
 0002:00005ffc       ??_C@_07DHNMFMCI@chinese?$AA@ 10046ffc     LIBCMT:getqloc.obj
 0002:00006004       ??_C@_03FNDDCHI@chi?$AA@   10047004     LIBCMT:getqloc.obj
 0002:00006008       ??_C@_03BMMIADDJ@chh?$AA@  10047008     LIBCMT:getqloc.obj
 0002:0000600c       ??_C@_08OAIPJDGI@canadian?$AA@ 1004700c     LIBCMT:getqloc.obj
 0002:00006018       ??_C@_07HBPMNPNJ@belgian?$AA@ 10047018     LIBCMT:getqloc.obj
 0002:00006020       ??_C@_0L@OEKOPBEL@australian?$AA@ 10047020     LIBCMT:getqloc.obj
 0002:0000602c       ??_C@_0BB@MEIMBEDG@american?9english?$AA@ 1004702c     LIBCMT:getqloc.obj
 0002:00006040       ??_C@_0BB@DFMDPDGB@american?5english?$AA@ 10047040     LIBCMT:getqloc.obj
 0002:00006054       ??_C@_08IJLOKOLL@american?$AA@ 10047054     LIBCMT:getqloc.obj
 0002:00006060       ___rg_language             10047060     LIBCMT:getqloc.obj
 0002:00006268       ___rg_country              10047268     LIBCMT:getqloc.obj
 0002:00006320       ___rglangidNotDefault      10047320     LIBCMT:getqloc.obj
 0002:00006334       ??_C@_01GBGANLPD@0?$AA@    10047334     LIBCMT:getqloc.obj
 0002:00006338       ??_C@_03NFKLAGEF@OCP?$AA@  10047338     LIBCMT:getqloc.obj
 0002:0000633c       ??_C@_03DFHEHBHG@ACP?$AA@  1004733c     LIBCMT:getqloc.obj
 0002:00006340       ??_C@_0BC@NFIEMBLL@Norwegian?9Nynorsk?$AA@ 10047340     LIBCMT:getqloc.obj
 0002:00006354       ??_C@_0BC@JEAENNKH@SystemFunction036?$AA@ 10047354     LIBCMT:rand_s.obj
 0002:00006368       ??_C@_0N@JJPEKNFO@ADVAPI32?4DLL?$AA@ 10047368     LIBCMT:rand_s.obj
 0002:00006380       ___dnames                  10047380     LIBCMT:timeset.obj
 0002:00006398       ___mnames                  10047398     LIBCMT:timeset.obj
 0002:000063c0       ??_C@_02CLFPBFFP@TZ?$AA@   100473c0     LIBCMT:tzset.obj
 0002:000063c8       __load_config_used         100473c8     LIBCMT:loadcfg.obj
 0002:00006480       ___safe_se_handler_table   10047480     <linker-defined>
 0002:00006490       ___rtc_iaa                 10047490     LIBCMT:_initsect_.obj
 0002:00006494       ___rtc_izz                 10047494     LIBCMT:_initsect_.obj
 0002:00006498       ___rtc_taa                 10047498     LIBCMT:_initsect_.obj
 0002:0000649c       ___rtc_tzz                 1004749c     LIBCMT:_initsect_.obj
 0002:00006924       __IMPORT_DESCRIPTOR_KERNEL32 10047924     kernel32:KERNEL32.dll
 0002:00006938       __IMPORT_DESCRIPTOR_USER32 10047938     user32:USER32.dll
 0002:0000694c       __IMPORT_DESCRIPTOR_GDI32  1004794c     gdi32:GDI32.dll
 0002:00006960       __IMPORT_DESCRIPTOR_ADVAPI32 10047960     advapi32:ADVAPI32.dll
 0002:00006974       __IMPORT_DESCRIPTOR_SHELL32 10047974     shell32:SHELL32.dll
 0002:00006988       __IMPORT_DESCRIPTOR_VERSION 10047988     version:VERSION.dll
 0002:0000699c       __NULL_IMPORT_DESCRIPTOR   1004799c     kernel32:KERNEL32.dll
 0003:00000000       ?gsInternalCommands@@3PB_WB 1004a000     CmdLine.obj
 0003:00000004       ?Far3Func@@3PAUExportFunc@@A 1004a004     ConEmuPlugin.obj
 0003:00000040       ?StdPalette@?1??GetStdPalette@Far3Color@@SIPBKXZ@4PAKA 1004a040     ConEmuPlugin1900.obj
 0003:00000080       ?guid_ConEmu@@3U_GUID@@A   1004a080     ConEmuPlugin2800.obj
 0003:00000090       ?guid_ConEmuPluginItems@@3U_GUID@@A 1004a090     ConEmuPlugin2800.obj
 0003:000000a0       ?guid_ConEmuPluginMenu@@3U_GUID@@A 1004a0a0     ConEmuPlugin2800.obj
 0003:000000b0       ?guid_ConEmuGuiMacroDlg@@3U_GUID@@A 1004a0b0     ConEmuPlugin2800.obj
 0003:000000c0       ?guid_ConEmuWaitEndSynchro@@3U_GUID@@A 1004a0c0     ConEmuPlugin2800.obj
 0003:000000d0       ?guid_ConEmuMsg@@3U_GUID@@A 1004a0d0     ConEmuPlugin2800.obj
 0003:000000e0       ?guid_ConEmuInput@@3U_GUID@@A 1004a0e0     ConEmuPlugin2800.obj
 0003:000000f0       ?guid_ConEmuMenu@@3U_GUID@@A 1004a0f0     ConEmuPlugin2800.obj
 0003:00000118       ?gnPluginOpenFrom@@3HA     1004a118     ConEmuPluginBase.obj
 0003:0000011c       ?gnReqCommand@@3KA         1004a11c     ConEmuPluginBase.obj
 0003:00000120       ?lastModifiedStateW@@3HA   1004a120     ConEmuPluginBase.obj
 0003:00000124       ?gFarMode@@3UHookModeFar@@A 1004a124     ConEmuPluginBase.obj
 0003:00000148       ?gpPluginMenu@@3PAUPluginAndMenuCommands@@A 1004a148     ConEmuPluginBase.obj
 0003:00000208       ?g_TerminatedThreadIdx@@3JA 1004a208     WThreads.obj
 0003:00000210       ___abort_behavior          1004a210     LIBCMT:abort.obj
 0003:000002d0       ___flsindex                1004a2d0     LIBCMT:tidtable.obj
 0003:000002d4       ___getvalueindex           1004a2d4     LIBCMT:tidtable.obj
 0003:000002d8       ___initialmbcinfo          1004a2d8     LIBCMT:mbctype.obj
 0003:000004f8       __mbctype                  1004a4f8     LIBCMT:mbctype.obj
 0003:00000600       __mbcasemap                1004a600     LIBCMT:mbctype.obj
 0003:00000700       ___ptmbcinfo               1004a700     LIBCMT:mbctype.obj
 0003:000007fc       ___globallocalestatus      1004a7fc     LIBCMT:glstatus.obj
 0003:00000800       ___clocalestr              1004a800     LIBCMT:nlsdata2.obj
 0003:00000808       ___initiallocinfo          1004a808     LIBCMT:nlsdata2.obj
 0003:000008e0       ___ptlocinfo               1004a8e0     LIBCMT:nlsdata2.obj
 0003:000008e4       ___lc_clike                1004a8e4     LIBCMT:nlsdata2.obj
 0003:000008e8       ___initiallocalestructinfo 1004a8e8     LIBCMT:nlsdata2.obj
 0003:00000a60       __aexit_rtn                1004aa60     LIBCMT:crt0dat.obj
 0003:00000a64       __NLG_Destination          1004aa64     LIBCMT:exsup.obj
 0003:00000a78       ___badioinfo               1004aa78     LIBCMT:ioinit.obj
 0003:00000ab8       __amblksiz                 1004aab8     LIBCMT:heapinit.obj
 0003:00000abc       __First_FPE_Indx           1004aabc     LIBCMT:winxfltr.obj
 0003:00000ac0       __Num_FPE                  1004aac0     LIBCMT:winxfltr.obj
 0003:00000ac4       __XcptActTabSize           1004aac4     LIBCMT:winxfltr.obj
 0003:00000ac8       __XcptActTabCount          1004aac8     LIBCMT:winxfltr.obj
 0003:00000acc       ___security_cookie         1004aacc     LIBCMT:gs_cookie.obj
 0003:00000ad0       ___security_cookie_complement 1004aad0     LIBCMT:gs_cookie.obj
 0003:00000bf8       __pctype                   1004abf8     LIBCMT:ctype.obj
 0003:00000bfc       __pwctype                  1004abfc     LIBCMT:ctype.obj
 0003:00000c00       ___lc_time_c               1004ac00     LIBCMT:strftime.obj
 0003:00000cb8       ___lc_time_curr            1004acb8     LIBCMT:strftime.obj
 0003:00000cbc       ___lconv_static_decimal    1004acbc     LIBCMT:lconv.obj
 0003:00000cc0       ___lconv_c                 1004acc0     LIBCMT:lconv.obj
 0003:00000cf0       ___lconv                   1004acf0     LIBCMT:lconv.obj
 0003:00000cf4       ___mb_cur_max              1004acf4     LIBCMT:nlsdata1.obj
 0003:00000cf8       ___decimal_point           1004acf8     LIBCMT:nlsdata1.obj
 0003:00000cfc       ___decimal_point_length    1004acfc     LIBCMT:nlsdata1.obj
 0003:00000d00       __cfltcvt_tab              1004ad00     LIBCMT:cmiscdat.obj
 0003:00000d30       __timezone                 1004ad30     LIBCMT:timeset.obj
 0003:00000d34       __daylight                 1004ad34     LIBCMT:timeset.obj
 0003:00000d38       __dstbias                  1004ad38     LIBCMT:timeset.obj
 0003:00000dc0       __tzname                   1004adc0     LIBCMT:timeset.obj
 0003:00000de0       __lpdays                   1004ade0     LIBCMT:days.obj
 0003:00000e14       __days                     1004ae14     LIBCMT:days.obj
 0003:00000e60       ?gbInCommonShutdown@@3HA   1004ae60     Common.obj
 0003:00000e68       ?gpLocalSecurity@@3PAU_SECURITY_ATTRIBUTES@@A 1004ae68     ConEmuCheck.obj
 0003:00000e6c       ?gfGetRealConsoleWindow@@3P6GPAUHWND__@@XZA 1004ae6c     ConEmuCheck.obj
 0003:00000e70       ?ghWorkingModule@@3_KA     1004ae70     ConEmuCheck.obj
 0003:00000ec0       ?ghHooksModule@@3PAUHINSTANCE__@@A 1004aec0     ConEmuInjects.obj
 0003:00000ec4       ?gbHooksModuleLoaded@@3HA  1004aec4     ConEmuInjects.obj
 0003:00000ec8       ?SetHookCallbacks@@3P6G_NPBDPB_WPAUHINSTANCE__@@P6GHPAUHookCallbackArg@@@ZP6GX3@Z5@ZA 1004aec8     ConEmuInjects.obj
 0003:00000ecc       ?SetLoadLibraryCallback@@3P6GXPAUHINSTANCE__@@P6GX0@Z1@ZA 1004aecc     ConEmuInjects.obj
 0003:00000ed0       ?SetFarHookMode@@3P6GXPAUHookModeFar@@@ZA 1004aed0     ConEmuInjects.obj
 0003:00000ed4       ?ghExtConModule@@3PAUHINSTANCE__@@A 1004aed4     ConEmuInjects.obj
 0003:00000ed8       ?SetHookCallbacksExt@@3P6G_NPBDPB_WPAUHINSTANCE__@@P6GHPAUHookCallbackArg@@@ZP6GX3@Z5@ZA 1004aed8     ConEmuInjects.obj
 0003:00000edc       ?InfoW1900@@3PAUPluginStartupInfo@@A 1004aedc     ConEmuPlugin1900.obj
 0003:00000ee0       ?FSFW1900@@3PAUFarStandardFunctions@@A 1004aee0     ConEmuPlugin1900.obj
 0003:00001168       ?LastIndex@?1??Color2FgIndex@Far3Color@@SIXKAAGPBK@Z@4HA 1004b168     ConEmuPlugin1900.obj
 0003:0000116c       ?LastColor@?1??Color2FgIndex@Far3Color@@SIXKAAGPBK@Z@4KA 1004b16c     ConEmuPlugin1900.obj
 0003:00001170       ?LastIndex@?1??Color2BgIndex@Far3Color@@SIXKHAAGPBK@Z@4HA 1004b170     ConEmuPlugin1900.obj
 0003:00001174       ?LastColor@?1??Color2BgIndex@Far3Color@@SIXKHAAGPBK@Z@4KA 1004b174     ConEmuPlugin1900.obj
 0003:00001178       ?InfoW2800@@3PAUPluginStartupInfo@@A 1004b178     ConEmuPlugin2800.obj
 0003:0000117c       ?FSFW2800@@3PAUFarStandardFunctions@@A 1004b17c     ConEmuPlugin2800.obj
 0003:0000141c       ?InfoW995@@3PAUPluginStartupInfo@@A 1004b41c     ConEmuPlugin995.obj
 0003:00001420       ?FSFW995@@3PAUFarStandardFunctions@@A 1004b420     ConEmuPlugin995.obj
 0003:00001674       ?InfoA@@3PAUPluginStartupInfo@@A 1004b674     ConEmuPluginA.obj
 0003:00001678       ?FSFA@@3PAUFarStandardFunctions@@A 1004b678     ConEmuPluginA.obj
 0003:00001978       ?gszDir2@@3PA_WA           1004b978     ConEmuPluginBase.obj
 0003:00002178       ?gpConMap@@3PAV?$MFileMapping@UCESERVER_CONSOLE_MAPPING_HDR@@@@A 1004c178     ConEmuPluginBase.obj
 0003:0000217c       ?gsbiDetached@@3U_CONSOLE_SCREEN_BUFFER_INFO@@A 1004c17c     ConEmuPluginBase.obj
 0003:00002198       ?gszDir1@@3PA_WA           1004c198     ConEmuPluginBase.obj
 0003:00002998       ?gpPlugin@@3PAVCPluginBase@@A 1004c998     ConEmuPluginBase.obj
 0003:0000299c       ?gb_DllUniqueWarned@CPluginBase@@1_NA 1004c99c     ConEmuPluginBase.obj
 0003:0000299d       ?gb_DllUniqueChecked@CPluginBase@@1_NA 1004c99d     ConEmuPluginBase.obj
 0003:0000299e       ?gb_ProtocolWarned@CPluginBase@@1_NA 1004c99e     ConEmuPluginBase.obj
 0003:0000299f       ?gbExitFarCalled@@3_NA     1004c99f     ConEmuPluginBase.obj
 0003:000029a8       ?gbWasDetached@@3HA        1004c9a8     ConEmuPluginBase.obj
 0003:000029ac       ?gbFarWndVisible@@3HA      1004c9ac     ConEmuPluginBase.obj
 0003:000029b0       ?gnPeekReadCount@@3KA      1004c9b0     ConEmuPluginBase.obj
 0003:000029b4       ?gnInLongOperation@@3JA    1004c9b4     ConEmuPluginBase.obj
 0003:000029b8       ?ghPluginModule@@3PAUHINSTANCE__@@A 1004c9b8     ConEmuPluginBase.obj
 0003:000029bc       ?ghConEmuWndDC@@3PAUHWND__@@A 1004c9bc     ConEmuPluginBase.obj
 0003:000029c0       ?gdwPreDetachGuiPID@@3KA   1004c9c0     ConEmuPluginBase.obj
 0003:000029c4       ?gdwServerPID@@3KA         1004c9c4     ConEmuPluginBase.obj
 0003:000029c8       ?TerminalMode@@3HA         1004c9c8     ConEmuPluginBase.obj
 0003:000029cc       ?FarHwnd@@3PAUHWND__@@A    1004c9cc     ConEmuPluginBase.obj
 0003:000029d0       ?gnMainThreadId@@3KA       1004c9d0     ConEmuPluginBase.obj
 0003:000029d4       ?gnMainThreadIdInitial@@3KA 1004c9d4     ConEmuPluginBase.obj
 0003:000029d8       ?ghMonitorThread@@3PAXA    1004c9d8     ConEmuPluginBase.obj
 0003:000029dc       ?gnMonitorThreadId@@3KA    1004c9dc     ConEmuPluginBase.obj
 0003:000029e0       ?ghSetWndSendTabsEvent@@3PAXA 1004c9e0     ConEmuPluginBase.obj
 0003:000029e4       ?gFarVersion@@3UFarVersion@@A 1004c9e4     ConEmuPluginBase.obj
 0003:000029f0       ?maxTabCount@@3HA          1004c9f0     ConEmuPluginBase.obj
 0003:000029f4       ?lastWindowCount@@3HA      1004c9f4     ConEmuPluginBase.obj
 0003:000029f8       ?gnCurTabCount@@3HA        1004c9f8     ConEmuPluginBase.obj
 0003:000029fc       ?gpTabs@@3PAUCESERVER_REQ@@A 1004c9fc     ConEmuPluginBase.obj
 0003:00002a00       ?gbForceSendTabs@@3HA      1004ca00     ConEmuPluginBase.obj
 0003:00002a04       ?gnCurrentWindowType@@3HA  1004ca04     ConEmuPluginBase.obj
 0003:00002a08       ?gbIgnoreUpdateTabs@@3HA   1004ca08     ConEmuPluginBase.obj
 0003:00002a0c       ?gbRequestUpdateTabs@@3HA  1004ca0c     ConEmuPluginBase.obj
 0003:00002a10       ?gbClosingModalViewerEditor@@3HA 1004ca10     ConEmuPluginBase.obj
 0003:00002a14       ?gLastMouseReadEvent@@3U_MOUSE_EVENT_RECORD@@A 1004ca14     ConEmuPluginBase.obj
 0003:00002a24       ?gbUngetDummyMouseEvent@@3HA 1004ca24     ConEmuPluginBase.obj
 0003:00002a28       ?gnAllowDummyMouseEvent@@3JA 1004ca28     ConEmuPluginBase.obj
 0003:00002a2c       ?gnDummyMouseEventFromMacro@@3JA 1004ca2c     ConEmuPluginBase.obj
 0003:00002a30       ?csData@@3PAVMSection@@A   1004ca30     ConEmuPluginBase.obj
 0003:00002a34       ?gpCmdRet@@3PAUCESERVER_REQ@@A 1004ca34     ConEmuPluginBase.obj
 0003:00002a38       ?gpData@@3PAEA             1004ca38     ConEmuPluginBase.obj
 0003:00002a3c       ?gpCursor@@3PAEA           1004ca3c     ConEmuPluginBase.obj
 0003:00002a40       ?gnDataSize@@3KA           1004ca40     ConEmuPluginBase.obj
 0003:00002a44       ?gpReqCommandData@@3PAXA   1004ca44     ConEmuPluginBase.obj
 0003:00002a48       ?ghReqCommandEvent@@3PAXA  1004ca48     ConEmuPluginBase.obj
 0003:00002a4c       ?gbReqCommandWaiting@@3HA  1004ca4c     ConEmuPluginBase.obj
 0003:00002a50       ?gnMsgTabChanged@@3IA      1004ca50     ConEmuPluginBase.obj
 0003:00002a54       ?csTabs@@3PAVMSection@@A   1004ca54     ConEmuPluginBase.obj
 0003:00002a58       ?gbPlugKeyChanged@@3HA     1004ca58     ConEmuPluginBase.obj
 0003:00002a5c       ?ghRegMonitorKey@@3PAUHKEY__@@A 1004ca5c     ConEmuPluginBase.obj
 0003:00002a60       ?ghRegMonitorEvt@@3PAXA    1004ca60     ConEmuPluginBase.obj
 0003:00002a64       ?ghPluginSemaphore@@3PAXA  1004ca64     ConEmuPluginBase.obj
 0003:00002a68       ?gsFarLang@@3PA_WA         1004ca68     ConEmuPluginBase.obj
 0003:00002ae8       ?gbNeedPostTabSend@@3HA    1004cae8     ConEmuPluginBase.obj
 0003:00002aec       ?gbNeedPostEditCheck@@3HA  1004caec     ConEmuPluginBase.obj
 0003:00002af0       ?gbNeedPostReloadFarInfo@@3HA 1004caf0     ConEmuPluginBase.obj
 0003:00002af4       ?gnNeedPostTabSendTick@@3KA 1004caf4     ConEmuPluginBase.obj
 0003:00002af8       ?gpConMapInfo@@3PBUCESERVER_CONSOLE_MAPPING_HDR@@B 1004caf8     ConEmuPluginBase.obj
 0003:00002afc       ?gbStartedUnderConsole2@@3HA 1004cafc     ConEmuPluginBase.obj
 0003:00002b00       ?gnSelfPID@@3KA            1004cb00     ConEmuPluginBase.obj
 0003:00002b04       ?ghFarInfoMapping@@3PAXA   1004cb04     ConEmuPluginBase.obj
 0003:00002b08       ?gpFarInfo@@3PAUCEFAR_INFO_MAPPING@@A 1004cb08     ConEmuPluginBase.obj
 0003:00002b0c       ?gpFarInfoMapping@@3PAUCEFAR_INFO_MAPPING@@A 1004cb0c     ConEmuPluginBase.obj
 0003:00002b10       ?ghFarAliveEvent@@3PAXA    1004cb10     ConEmuPluginBase.obj
 0003:00002b14       ?gPanelRegLeft@@3UPanelViewRegInfo@@A 1004cb14     ConEmuPluginBase.obj
 0003:00002b2c       ?gPanelRegRight@@3UPanelViewRegInfo@@A 1004cb2c     ConEmuPluginBase.obj
 0003:00002b44       ?ghConEmuCtrlPressed@@3PAXA 1004cb44     ConEmuPluginBase.obj
 0003:00002b48       ?ghConEmuShiftPressed@@3PAXA 1004cb48     ConEmuPluginBase.obj
 0003:00002b4c       ?gbWaitConsoleInputEmpty@@3HA 1004cb4c     ConEmuPluginBase.obj
 0003:00002b50       ?gbWaitConsoleWrite@@3HA   1004cb50     ConEmuPluginBase.obj
 0003:00002b54       ?ghConsoleInputEmpty@@3PAXA 1004cb54     ConEmuPluginBase.obj
 0003:00002b58       ?ghConsoleWrite@@3PAXA     1004cb58     ConEmuPluginBase.obj
 0003:00002b5c       ?gnSynchroCount@@3HA       1004cb5c     ConEmuPluginBase.obj
 0003:00002b60       ?gbSynchroProhibited@@3_NA 1004cb60     ConEmuPluginBase.obj
 0003:00002b61       ?gbInputSynchroPending@@3_NA 1004cb61     ConEmuPluginBase.obj
 0003:00002b78       ?hkFunc@@3UHkFunc@@A       1004cb78     HkFunc.obj
 0003:00002b7c       ?AssertMsgBox@@3P6IHPB_WI0PAUHWND__@@_N@ZA 1004cb7c     MAssert.obj
 0003:00002b80       ?gfnHooksUnlockerProc@@3P6I_N_N@ZA 1004cb80     MAssert.obj
 0003:00002b84       ?ghHeap@@3PAXA             1004cb84     Memory.obj
 0003:00002b88       ?g_LastDeletePtr@@3PAXA    1004cb88     Memory.obj
 0003:00002b90       ?gNullDesc@@3PAVMNullDesc@@A 1004cb90     MSecurity.obj
 0003:00002b94       ?gbNeedBgActivate@@3HA     1004cb94     PluginBackground.obj
 0003:00002b98       ?gbBgPluginsAllowed@@3HA   1004cb98     PluginBackground.obj
 0003:00002b9c       ?gpBgPlugin@@3PAVCPluginBackground@@A 1004cb9c     PluginBackground.obj
 0003:00002ba0       ?gszPluginServerPipe@@3PA_WA 1004cba0     PluginSrv.obj
 0003:00002da8       ?gpPlugServer@@3PAU?$PipeServer@UCESERVER_REQ@@@@A 1004cda8     PluginSrv.obj
 0003:00002dac       ?ghServerTerminateEvent@@3PAXA 1004cdac     PluginSrv.obj
 0003:00002db0       ?gbForcedServerTermination@@3_NA 1004cdb0     PluginSrv.obj
 0003:00002db8       ?g_LastSetConsoleFont@@3UMY_CONSOLE_FONT_INFOEX@@A 1004cdb8     WConsole.obj
 0003:00002e10       ?gsMapHelper@@3UConsoleSectionHelper@@A 1004ce10     WConsole.obj
 0003:00002e70       ?gfnSearchAppPaths@@3P6I_NPB_WAAUCEStr@@_NPAU1@@ZA 1004ce70     WObjects.obj
 0003:0000a6a0       ?g_ThreadsIdx@@3JA         100546a0     WThreads.obj
 0003:0000a6ac       __aenvptr                  100546ac     LIBCMT:dllcrt0.obj
 0003:0000a6b0       __wenvptr                  100546b0     LIBCMT:dllcrt0.obj
 0003:0000a6b4       ___error_mode              100546b4     LIBCMT:dllcrt0.obj
 0003:0000a6b8       ___app_type                100546b8     LIBCMT:dllcrt0.obj
 0003:0000a9d4       _gpFlsAlloc                100549d4     LIBCMT:tidtable.obj
 0003:0000a9d8       _gpFlsGetValue             100549d8     LIBCMT:tidtable.obj
 0003:0000a9dc       _gpFlsSetValue             100549dc     LIBCMT:tidtable.obj
 0003:0000a9e0       _gpFlsFree                 100549e0     LIBCMT:tidtable.obj
 0003:0000a9ec       ___pPurecall               100549ec     LIBCMT:inithelp.obj
 0003:0000a9f4       ___mbulinfo                100549f4     LIBCMT:mbctype.obj
 0003:0000aa00       ___mbcodepage              10054a00     LIBCMT:mbctype.obj
 0003:0000aa04       ___ismbcodepage            10054a04     LIBCMT:mbctype.obj
 0003:0000aa08       ___mblcid                  10054a08     LIBCMT:mbctype.obj
 0003:0000aa0c       ___locale_changed          10054a0c     LIBCMT:setlocal.obj
 0003:0000aa10       ___lc_handle               10054a10     LIBCMT:nlsdata2.obj
 0003:0000aa28       ___lc_codepage             10054a28     LIBCMT:nlsdata2.obj
 0003:0000aa2c       ___lc_collate_cp           10054a2c     LIBCMT:nlsdata2.obj
 0003:0000aa30       ___pInvalidArgHandler      10054a30     LIBCMT:invarg.obj
 0003:0000aa34       __maxwait                  10054a34     LIBCMT:crtheap.obj
 0003:0000aa38       __umaskval                 10054a38     LIBCMT:crt0dat.obj
 0003:0000aa3c       ___argc                    10054a3c     LIBCMT:crt0dat.obj
 0003:0000aa40       ___argv                    10054a40     LIBCMT:crt0dat.obj
 0003:0000aa44       ___wargv                   10054a44     LIBCMT:crt0dat.obj
 0003:0000aa48       __environ                  10054a48     LIBCMT:crt0dat.obj
 0003:0000aa4c       ___initenv                 10054a4c     LIBCMT:crt0dat.obj
 0003:0000aa50       __wenviron                 10054a50     LIBCMT:crt0dat.obj
 0003:0000aa54       ___winitenv                10054a54     LIBCMT:crt0dat.obj
 0003:0000aa58       __pgmptr                   10054a58     LIBCMT:crt0dat.obj
 0003:0000aa5c       __wpgmptr                  10054a5c     LIBCMT:crt0dat.obj
 0003:0000aa60       __exitflag                 10054a60     LIBCMT:crt0dat.obj
 0003:0000aa64       __C_Termination_Done       10054a64     LIBCMT:crt0dat.obj
 0003:0000aa68       __C_Exit_Done              10054a68     LIBCMT:crt0dat.obj
 0003:0000ac04       __crtheap                  10054c04     LIBCMT:heapinit.obj
 0003:0000ad8c       ___lconv_static_null       10054d8c     LIBCMT:lconv.obj
 0003:0000ad90       ___sbh_pHeaderDefer        10054d90     LIBCMT:sbheap.obj
 0003:0000ad94       ?__pInconsistency@@3P6AXXZA 10054d94     LIBCMT:hooks.obj
 0003:0000ada0       ?_pnhHeap@@3P6AHI@ZA       10054da0     LIBCMT:handler.obj
 0003:0000b188       __newmode                  10055188     LIBCMT:_newmode.obj
 0003:0000b190       ___sbh_initialized         10055190     <common>
 0003:0000b194       ___sbh_cntHeaderList       10055194     <common>
 0003:0000b198       ___sbh_pHeaderList         10055198     <common>
 0003:0000b19c       ___sbh_threshold           1005519c     <common>
 0003:0000b1a0       ___sbh_pHeaderScan         100551a0     <common>
 0003:0000b1a4       ___sbh_sizeHeaderList      100551a4     <common>
 0003:0000b1a8       ___sbh_indGroupDefer       100551a8     <common>
 0003:0000b1ac       __debugger_hook_dummy      100551ac     <common>
 0003:0000b1b0       ___active_heap             100551b0     <common>
 0003:0000b1b4       __nhandle                  100551b4     <common>
 0003:0000b1c0       ___pioinfo                 100551c0     <common>
 0003:0000b2c0       __pDestructExceptionObject 100552c0     <common>
 0003:0000b2c4       ___env_initialized         100552c4     <common>
 0003:0000b2c8       ___onexitend               100552c8     <common>
 0003:0000b2cc       ___onexitbegin             100552cc     <common>
 0003:0000b2d0       ___mbctype_initialized     100552d0     <common>
 0003:0000b2d4       __FPinit                   100552d4     <common>
 0003:0000b2d8       ___dyn_tls_init_callback   100552d8     <common>
 0003:0000b2dc       ___setlc_active            100552dc     <common>
 0003:0000b2e0       ___unguarded_readlc_active 100552e0     <common>
 0003:0000b2e4       ___sse2_available          100552e4     <common>
 0003:0000b2e8       __acmdln                   100552e8     <common>

 entry point at        0001:0003220c

 Static symbols

 0001:00000a70       ?StringValidateDestW@@YGJPB_WII@Z 10001a70 f   CEStr.obj
 0001:00000aa0       ?StringCopyWorkerW@@YGJPA_WIPAIPB_WI@Z 10001aa0 f   CEStr.obj
 0001:00004980       ?StringValidateDestW@@YGJPB_WII@Z 10005980 f   ConEmuCheck.obj
 0001:000049b0       ?StringCopyWorkerW@@YGJPA_WIPAIPB_WI@Z 100059b0 f   ConEmuCheck.obj
 0001:00006490       ?StringValidateDestW@@YGJPB_WII@Z 10007490 f   ConEmuCheckEx.obj
 0001:000064c0       ?StringCopyWorkerW@@YGJPA_WIPAIPB_WI@Z 100074c0 f   ConEmuCheckEx.obj
 0001:00006650       ?StringValidateDestAndLengthW@@YGJPB_WIPAII@Z 10007650 f   ConEmuCheckEx.obj
 0001:000066a0       ?StringLengthWorkerW@@YGJPB_WIPAI@Z 100076a0 f   ConEmuCheckEx.obj
 0001:00006cc0       ?StringValidateDestW@@YGJPB_WII@Z 10007cc0 f   ConEmuInjects.obj
 0001:00006cf0       ?StringCopyWorkerW@@YGJPA_WIPAIPB_WI@Z 10007cf0 f   ConEmuInjects.obj
 0001:00007750       ?ChangeExports@@YI_NPBUExportFunc@@PAUHINSTANCE__@@@Z 10008750 f   ConEmuPlugin.obj
 0001:0000a4d0       ?GetFarSetting@@YIHPAXIPB_W@Z 1000b4d0 f   ConEmuPlugin1900.obj
 0001:0000a770       ?CallGuiMacroProc@@YIXXZ   1000b770 f   ConEmuPlugin1900.obj
 0001:0000ab40       ?CallGuiMacroDlg@@YGHPAXHH0@Z 1000bb40 f   ConEmuPlugin1900.obj
 0001:0000b060       ?MAKEFARVERSION@@YI?AUVersionInfo@@KKKKW4VERSION_STAGE@@@Z 1000c060 f   ConEmuPlugin2800.obj
 0001:0000c690       ?WExists@@YIHABUWindowInfo@@ABV?$MArray@UWindowInfo@@@@@Z 1000d690 f   ConEmuPlugin2800.obj
 0001:0000c710       ?WLoadWindows@@YIHAAV?$MArray@UWindowInfo@@@@H@Z 1000d710 f   ConEmuPlugin2800.obj
 0001:0000d6e0       ?GetFarSetting@@YIHPAXIPB_W@Z 1000e6e0 f   ConEmuPlugin2800.obj
 0001:0000d990       ?CallGuiMacroProc@@YIXXZ   1000e990 f   ConEmuPlugin2800.obj
 0001:0000dcf0       ?CallGuiMacroDlg@@YGHPAXHH0@Z 1000ecf0 f   ConEmuPlugin2800.obj
 0001:0000e140       ?FreeMacroResult@@YGXPAXPAUFarMacroValue@@I@Z 1000f140 f   ConEmuPlugin2800.obj
 0001:000101a0       ?CallGuiMacroProc@@YIXXZ   100111a0 f   ConEmuPlugin995.obj
 0001:00010500       ?CallGuiMacroDlg@@YGJPAXHHJ@Z 10011500 f   ConEmuPlugin995.obj
 0001:00012160       ?CallGuiMacroProc@@YIXXZ   10013160 f   ConEmuPluginA.obj
 0001:00012510       ?CallGuiMacroDlg@@YGJPAXHHJ@Z 10013510 f   ConEmuPluginA.obj
 0001:000131a0       ?LoadFarVersion@@YI_NAAUFarVersion@@AAY0CAA@_W@Z 100141a0 f   ConEmuPluginBase.obj
 0001:00013240       ?SetDefaultFarVersion@@YIXAAUFarVersion@@@Z 10014240 f   ConEmuPluginBase.obj
 0001:00013290       ?LoadFarVersion@@YI_NPB_WAAUFarVersion@@AAY0CAA@_W@Z 10014290 f   ConEmuPluginBase.obj
 0001:000132f0       ?LoadAppVersion@@YI_NPB_WAAUtagVS_FIXEDFILEINFO@@AAY0CAA@_W@Z 100142f0 f   ConEmuPluginBase.obj
 0001:00013320       ?LoadModuleVersion@@YI_NPB_WAAUtagVS_FIXEDFILEINFO@@PA_WI@Z 10014320 f   ConEmuPluginBase.obj
 0001:00013550       ?StringValidateDestW@@YGJPB_WII@Z 10014550 f   ConEmuPluginBase.obj
 0001:00013580       ?StringValidateDestAndLengthW@@YGJPB_WIPAII@Z 10014580 f   ConEmuPluginBase.obj
 0001:000135d0       ?StringLengthWorkerW@@YGJPB_WIPAI@Z 100145d0 f   ConEmuPluginBase.obj
 0001:00013640       ?StringCopyWorkerW@@YGJPA_WIPAIPB_WI@Z 10014640 f   ConEmuPluginBase.obj
 0001:000136f0       ?ConvertVersionToFarVersion@@YIXABUtagVS_FIXEDFILEINFO@@AAUFarVersion@@@Z 100146f0 f   ConEmuPluginBase.obj
 0001:0001d790       ?StringValidateDestW@@YGJPB_WII@Z 1001e790 f   Execute.obj
 0001:0001d7c0       ?StringCopyWorkerW@@YGJPA_WIPAIPB_WI@Z 1001e7c0 f   Execute.obj
 0001:0001de30       ?FindMonitor@impl@?L@??MonitorFromParam@@YIPAUHMONITOR__@@PB_W@Z@SGHPAU3@PAUHDC__@@PAUtagRECT@@J@Z 1001ee30 f   Monitors.obj
 0001:0001e9b0       ?compare@cmp@?1??Find@MToolHelpProcess@@QAE_NKPAUtagPROCESSENTRY32W@@@Z@SI_N0J@Z 1001f9b0 f   MProcess.obj
 0001:0001e9e0       ?compare@cmp@?1??Find@MToolHelpProcess@@QAE_NPB_WPAUtagPROCESSENTRY32W@@@Z@SI_N1J@Z 1001f9e0 f   MProcess.obj
 0001:0001ea20       ??0cmp@?1??FindForks@MToolHelpProcess@@QAE_NAAV?$MArray@UtagPROCESSENTRY32W@@@@@Z@QAE@XZ 1001fa20 f   MProcess.obj
 0001:0001ea30       ??1cmp@?1??FindForks@MToolHelpProcess@@QAE_NAAV?$MArray@UtagPROCESSENTRY32W@@@@@Z@QAE@XZ 1001fa30 f   MProcess.obj
 0001:0001ea40       ?check@cmp@?1??FindForks@MToolHelpProcess@@QAE_NAAV?$MArray@UtagPROCESSENTRY32W@@@@@Z@SI_NPAUtagPROCESSENTRY32W@@J@Z 1001fa40 f   MProcess.obj
 0001:00020bd0       ?StringValidateDestA@@YGJPBDII@Z 10021bd0 f   MStrDup.obj
 0001:00020c00       ?StringCopyWorkerA@@YGJPADIPAIPBDI@Z 10021c00 f   MStrDup.obj
 0001:00020d20       ?StringValidateDestW@@YGJPB_WII@Z 10021d20 f   MStrDup.obj
 0001:00020d50       ?StringCopyWorkerW@@YGJPA_WIPAIPB_WI@Z 10021d50 f   MStrDup.obj
 0001:000244e0       ?StringValidateDestW@@YGJPB_WII@Z 100254e0 f   PluginBackground.obj
 0001:00024510       ?StringCopyWorkerW@@YGJPA_WIPAIPB_WI@Z 10025510 f   PluginBackground.obj
 0001:00026c10       ?StringValidateDestW@@YGJPB_WII@Z 10027c10 f   PluginSrv.obj
 0001:00026c40       ?StringCopyWorkerW@@YGJPA_WIPAIPB_WI@Z 10027c40 f   PluginSrv.obj
 0001:0002abd0       ?StringValidateDestW@@YGJPB_WII@Z 1002bbd0 f   WObjects.obj
 0001:0002ac00       ?StringCopyWorkerW@@YGJPA_WIPAIPB_WI@Z 1002bc00 f   WObjects.obj
 0001:0002b200       ?CheckRegKeyExist@@YI_NPAURegKeyExistArg@@@Z 1002c200 f   WObjects.obj
 0001:0002bf30       ?StringValidateDestAndLengthW@@YGJPB_WIPAII@Z 1002cf30 f   WObjects.obj
 0001:0002bf80       ?StringLengthWorkerW@@YGJPB_WIPAI@Z 1002cf80 f   WObjects.obj
 0001:0002dd10       ?StringValidateDestW@@YGJPB_WII@Z 1002ed10 f   WUser.obj
 0001:0002dd40       ?StringCopyWorkerW@@YGJPA_WIPAIPB_WI@Z 1002ed40 f   WUser.obj
 0001:0002ed05       _cmpResult                 1002fd05 f   LIBCMT:memcmp.obj
 0001:0002ed17       _cmpBYTE                   1002fd17 f   LIBCMT:memcmp.obj
 0001:0002ed2f       _cmpWORD                   1002fd2f f   LIBCMT:memcmp.obj
 0001:0002ed6f       _cmpDWORD                  1002fd6f f   LIBCMT:memcmp.obj
 0001:0002ede7       _unaligned_memcmp          1002fde7 f   LIBCMT:memcmp.obj
 0001:00031993       ?wcstoxl@@YAKPAUlocaleinfo_struct@@PB_WPAPB_WHH@Z 10032993 f   LIBCMT:wcstol.obj
 0001:00031c1e       __onexit_nolock            10032c1e f   LIBCMT:onexit.obj
 0001:00032116       ___DllMainCRTStartup       10033116 f   LIBCMT:dllcrt0.obj
 0001:0003222f       _fastcopy_I                1003322f f   LIBCMT:p4_memcpy.obj
 0001:00032399       _has_osfxsr_set            10033399 f   LIBCMT:cpu_disp.obj
 0001:00032458       _fastzero_I                10033458 f   LIBCMT:p4_memset.obj
 0001:000330a0       ?CPtoLCID@@YAHH@Z          100340a0 f   LIBCMT:mbctype.obj
 0001:000330cf       ?setSBCS@@YAXPAUthreadmbcinfostruct@@@Z 100340cf f   LIBCMT:mbctype.obj
 0001:00033133       ?setSBUpLow@@YAXPAUthreadmbcinfostruct@@@Z 10034133 f   LIBCMT:mbctype.obj
 0001:0003336a       ?getSystemCP@@YAHH@Z       1003436a f   LIBCMT:mbctype.obj
 0001:00033a3e       __copytlocinfo_nolock      10034a3e f   LIBCMT:setlocal.obj
 0001:00033a64       __updatetlocinfoEx_nolock  10034a64 f   LIBCMT:setlocal.obj
 0001:00033b82       _sync_legacy_variables_lk  10034b82 f   LIBCMT:setlocal.obj
 0001:00033f2f       __setlocale_get_all        10034f2f f   LIBCMT:setlocal.obj
 0001:000342dd       __setlocale_set_cat        100352dd f   LIBCMT:setlocal.obj
 0001:000345df       __setlocale_nolock         100355df f   LIBCMT:setlocal.obj
 0001:000352ef       __initterm                 100362ef f   LIBCMT:crt0dat.obj
 0001:0003542d       _doexit                    1003642d f   LIBCMT:crt0dat.obj
 0001:00035650       _ValidateLocalCookies      10036650 f   LIBCMT:chandler4.obj
 0001:00035864       __unwind_handler           10036864 f   LIBCMT:exsup.obj
 0001:00035980       _ValidateScopeTableHandlers 10036980 f   LIBCMT:eh3valid.obj
 0001:000361a6       _parse_cmdline             100371a6 f   LIBCMT:stdargv.obj
 0001:0003662d       _xcptlookup                1003762d f   LIBCMT:winxfltr.obj
 0001:00036896       _ctrlevent_capture@4       10037896 f   LIBCMT:winsig.obj
 0001:00036931       _siglookup                 10037931 f   LIBCMT:winsig.obj
 0001:000378e1       ?__crtGetLocaleInfoW_stat@@YAHPAUlocaleinfo_struct@@KKPA_WHH@Z 100388e1 f   LIBCMT:w_loc.obj
 0001:00037964       ?__crtGetLocaleInfoA_stat@@YAHPAUlocaleinfo_struct@@KKPADHH@Z 10038964 f   LIBCMT:a_loc.obj
 0001:00037ae0       ?strncnt@@YAHPBDH@Z        10038ae0 f   LIBCMT:a_map.obj
 0001:00037afe       ?__crtLCMapStringA_stat@@YAHPAUlocaleinfo_struct@@KKPBDHPADHHH@Z 10038afe f   LIBCMT:a_map.obj
 0001:00037ee8       ?__crtGetStringTypeA_stat@@YAHPAUlocaleinfo_struct@@KPBDHPAGHHH@Z 10038ee8 f   LIBCMT:a_str.obj
 0001:00038113       __get_lc_time              10039113 f   LIBCMT:inittime.obj
 0001:0003873c       _fix_grouping              1003973c f   LIBCMT:initnum.obj
 0001:0003897e       _fix_grouping              1003997e f   LIBCMT:initmon.obj
 0001:000396d3       ?_store_str@@YAXPADPAPADPAI@Z 1003a6d3 f   LIBCMT:strftime.obj
 0001:000396f3       ?_store_number@@YAXHPAPADPAI@Z 1003a6f3 f   LIBCMT:strftime.obj
 0001:00039729       ?_store_num@@YAXHHPAPADPAII@Z 1003a729 f   LIBCMT:strftime.obj
 0001:000397a4       ?_expandtime@@YAHPAUlocaleinfo_struct@@DPBUtm@@PAPADPAIPAU__lc_time_data@@I@Z 1003a7a4 f   LIBCMT:strftime.obj
 0001:00039b8c       ?_store_winword@@YAHPAUlocaleinfo_struct@@HPBUtm@@PAPADPAIPAU__lc_time_data@@@Z 1003ab8c f   LIBCMT:strftime.obj
 0001:0003a2f8       _TranslateName             1003b2f8 f   LIBCMT:getqloc.obj
 0001:0003a35a       _GetLcidFromDefault        1003b35a f   LIBCMT:getqloc.obj
 0001:0003a36e       _ProcessCodePage           1003b36e f   LIBCMT:getqloc.obj
 0001:0003a412       _TestDefaultCountry        1003b412 f   LIBCMT:getqloc.obj
 0001:0003a436       _LcidFromHexString         1003b436 f   LIBCMT:getqloc.obj
 0001:0003a46a       _GetPrimaryLen             1003b46a f   LIBCMT:getqloc.obj
 0001:0003a485       _CountryEnumProc@4         1003b485 f   LIBCMT:getqloc.obj
 0001:0003a51d       _TestDefaultLanguage       1003b51d f   LIBCMT:getqloc.obj
 0001:0003a591       _LangCountryEnumProc@4     1003b591 f   LIBCMT:getqloc.obj
 0001:0003a763       _LanguageEnumProc@4        1003b763 f   LIBCMT:getqloc.obj
 0001:0003a824       _GetLcidFromCountry        1003b824 f   LIBCMT:getqloc.obj
 0001:0003a850       _GetLcidFromLangCountry    1003b850 f   LIBCMT:getqloc.obj
 0001:0003a8b7       _GetLcidFromLanguage       1003b8b7 f   LIBCMT:getqloc.obj
 0001:0003abf0       ?__crtGetStringTypeW_stat@@YAHPAUlocaleinfo_struct@@KPB_WHPAGHH@Z 1003bbf0 f   LIBCMT:w_str.obj
 0001:0003c65c       __unwind_handler4          1003d65c f   LIBCMT:exsup4.obj
 0001:0003c71f       ?x_ismbbtype_l@@YAHPAUlocaleinfo_struct@@IHH@Z 1003d71f f   LIBCMT:ismbbyte.obj
 0001:0003cf93       __tzset_nolock             1003df93 f   LIBCMT:tzset.obj
 0001:0003d2d9       _cvtdate                   1003e2d9 f   LIBCMT:tzset.obj
 0001:0003d4d0       __isindst_nolock           1003e4d0 f   LIBCMT:tzset.obj
 0001:0003dd7f       _xtoa_s@20                 1003ed7f f   LIBCMT:xtoas.obj
 0001:0003dec7       @x64toa_s@24               1003eec7 f   LIBCMT:xtoas.obj
 0001:0003e0a3       __getenv_s_helper          1003f0a3 f   LIBCMT:getenv.obj
 0001:0003e138       __dupenv_s_helper          1003f138 f   LIBCMT:getenv.obj
 0001:0003e56b       ?strtoxl@@YAKPAUlocaleinfo_struct@@PBDPAPBDHH@Z 1003f56b f   LIBCMT:strtol.obj
 0001:0003e82b       ?strtoxq@@YA_KPAUlocaleinfo_struct@@PBDPAPBDHH@Z 1003f82b f   LIBCMT:strtoq.obj
 0001:0003eea4       ?strncnt@@YAHPBDH@Z        1003fea4 f   LIBCMT:a_cmp.obj
 0001:0003eec2       ?__crtCompareStringA_stat@@YAHPAUlocaleinfo_struct@@KKPBDH1HH@Z 1003fec2 f   LIBCMT:a_cmp.obj
 0001:0003f397       _findenv                   10040397 f   LIBCMT:setenv.obj
 0001:0003f3e9       _copy_environ              100403e9 f   LIBCMT:setenv.obj
 0001:0003f8c0       ??__EhkFunc@@YAXXZ         100408c0 f   HkFunc.obj
 0001:0003f8d0       ??__EgsMapHelper@@YAXXZ    100408d0 f   WConsole.obj
 0001:0003f8f0       ??__FgsMapHelper@@YAXXZ    100408f0 f   WConsole.obj
